
 Start         Length     Name                   Class
 0001:00401000 00010F54H .text                   CODE
 0002:00412000 00000330H .itext                  ICODE
 0003:00413000 00000C84H .data                   DATA
 0004:00414000 00004A00H .bss                    BSS
 0005:00000000 00000000H .tls                    TLS


Detailed map of segments

 0001:00000000 00004C09 C=CODE     S=.text    G=(none)   M=System   ACBP=A9
 0001:00004C0C 000001A2 C=CODE     S=.text    G=(none)   M=SysInit  ACBP=A9
 0001:00004DB0 00000184 C=CODE     S=.text    G=(none)   M=Windows  ACBP=A9
 0001:00004F34 000002E8 C=CODE     S=.text    G=(none)   M=SysConst ACBP=A9
 0001:0000521C 000061A9 C=CODE     S=.text    G=(none)   M=SysUtils ACBP=A9
 0001:0000B3C8 000007EE C=CODE     S=.text    G=(none)   M=VarUtils ACBP=A9
 0001:0000BBB8 0000275C C=CODE     S=.text    G=(none)   M=Variants ACBP=A9
 0001:0000E314 00000038 C=CODE     S=.text    G=(none)   M=RTLConsts ACBP=A9
 0001:0000E34C 0000007B C=CODE     S=.text    G=(none)   M=TypInfo  ACBP=A9
 0001:0000E3C8 00000D15 C=CODE     S=.text    G=(none)   M=Classes  ACBP=A9
 0001:0000F0E0 0000005D C=CODE     S=.text    G=(none)   M=IniFiles ACBP=A9
 0001:0000F140 0000062D C=CODE     S=.text    G=(none)   M=Registry ACBP=A9
 0001:0000F770 0000003E C=CODE     S=.text    G=(none)   M=WinInet  ACBP=A9
 0001:0000F7B0 00000034 C=CODE     S=.text    G=(none)   M=DateUtils ACBP=A9
 0001:0000F7E4 00000068 C=CODE     S=.text    G=(none)   M=dskMetricsVars ACBP=A9
 0001:0000F84C 00000C7C C=CODE     S=.text    G=(none)   M=dskMetricsInternals ACBP=A9
 0001:000104C8 00000006 C=CODE     S=.text    G=(none)   M=JwaMsi   ACBP=A9
 0001:000104D0 0000001E C=CODE     S=.text    G=(none)   M=JwaMsiQuery ACBP=A9
 0001:000104F0 00000784 C=CODE     S=.text    G=(none)   M=dskMetricsMSI ACBP=A9
 0001:00010C74 000002E0 C=CODE     S=.text    G=(none)   M=DeskMetricsInstaller ACBP=A9
 0002:00000000 00000095 C=ICODE    S=.itext   G=(none)   M=System   ACBP=A9
 0002:00000098 00000011 C=ICODE    S=.itext   G=(none)   M=Windows  ACBP=A9
 0002:000000AC 00000088 C=ICODE    S=.itext   G=(none)   M=SysUtils ACBP=A9
 0002:00000134 0000000F C=ICODE    S=.itext   G=(none)   M=VarUtils ACBP=A9
 0002:00000144 000000AA C=ICODE    S=.itext   G=(none)   M=Variants ACBP=A9
 0002:000001F0 00000008 C=ICODE    S=.itext   G=(none)   M=TypInfo  ACBP=A9
 0002:000001F8 00000092 C=ICODE    S=.itext   G=(none)   M=Classes  ACBP=A9
 0002:0000028C 00000008 C=ICODE    S=.itext   G=(none)   M=IniFiles ACBP=A9
 0002:00000294 00000008 C=ICODE    S=.itext   G=(none)   M=Registry ACBP=A9
 0002:0000029C 00000008 C=ICODE    S=.itext   G=(none)   M=dskMetricsVars ACBP=A9
 0002:000002A4 0000008C C=ICODE    S=.itext   G=(none)   M=DeskMetricsInstaller ACBP=A9
 0003:00000000 00000788 C=DATA     S=.data    G=DGROUP   M=System   ACBP=A9
 0003:00000788 0000002C C=DATA     S=.data    G=DGROUP   M=SysInit  ACBP=A9
 0003:000007B4 0000022C C=DATA     S=.data    G=DGROUP   M=SysUtils ACBP=A9
 0003:000009E0 00000008 C=DATA     S=.data    G=DGROUP   M=VarUtils ACBP=A9
 0003:000009E8 00000076 C=DATA     S=.data    G=DGROUP   M=Variants ACBP=A9
 0003:00000A60 0000000C C=DATA     S=.data    G=DGROUP   M=TypInfo  ACBP=A9
 0003:00000A6C 00000004 C=DATA     S=.data    G=DGROUP   M=Classes  ACBP=A9
 0003:00000A70 00000008 C=DATA     S=.data    G=DGROUP   M=IniFiles ACBP=A9
 0003:00000A78 00000008 C=DATA     S=.data    G=DGROUP   M=Registry ACBP=A9
 0003:00000A80 00000008 C=DATA     S=.data    G=DGROUP   M=dskMetricsVars ACBP=A9
 0004:00000000 000027EC C=BSS      S=.bss     G=DGROUP   M=System   ACBP=A9
 0004:000027EC 00000010 C=BSS      S=.bss     G=DGROUP   M=SysInit  ACBP=A9
 0004:000027FC 00000008 C=BSS      S=.bss     G=DGROUP   M=Windows  ACBP=A9
 0004:00002804 00002108 C=BSS      S=.bss     G=DGROUP   M=SysUtils ACBP=A9
 0004:0000490C 0000005C C=BSS      S=.bss     G=DGROUP   M=VarUtils ACBP=A9
 0004:00004968 00000040 C=BSS      S=.bss     G=DGROUP   M=Variants ACBP=A9
 0004:000049A8 00000004 C=BSS      S=.bss     G=DGROUP   M=TypInfo  ACBP=A9
 0004:000049AC 00000034 C=BSS      S=.bss     G=DGROUP   M=Classes  ACBP=A9
 0004:000049E0 00000004 C=BSS      S=.bss     G=DGROUP   M=IniFiles ACBP=A9
 0004:000049E4 00000004 C=BSS      S=.bss     G=DGROUP   M=Registry ACBP=A9
 0004:000049E8 00000018 C=BSS      S=.bss     G=DGROUP   M=dskMetricsVars ACBP=A9
 0005:00000000 00000008 C=TLS      S=.tls     G=(none)   M=System   ACBP=A9
 0005:00000008 00000004 C=TLS      S=.tls     G=(none)   M=Classes  ACBP=A9


  Address             Publics by Name

 0004:000049B4       Classes..95
 0001:0000E3C8       Classes..EListError
 0001:0000E420       Classes..TList
 0001:0000E4DC       Classes..TPersistent
 0001:0000E578       Classes..TRegGroup
 0001:0000E5D0       Classes..TRegGroups
 0001:0000E484       Classes..TThreadList
 0002:000001F8       Classes.Classes
 0001:0000EFA4       Classes.DoneThreadSynchronization
 0001:0000F030       Classes.Finalization
 0004:000049C0       Classes.FindGlobalComponentProcs
 0001:0000EFBC       Classes.FreeIntConstList
 0004:000049C4       Classes.GlobalFixupList
 0005:00000008       Classes.GlobalLists
 0004:000049AC       Classes.GlobalNameSpace
 0001:0000EF70       Classes.InitThreadSynchronization
 0004:000049B8       Classes.IntConstList
 0001:0000F028       Classes.ModuleUnload
 0001:0000E6C4       Classes.PointerInModule
 0004:000049BC       Classes.RegGroups
 0001:0000EE40       Classes.RemoveFixupReferences
 0001:0000EEEC       Classes.RemoveFixups
 0001:0000E9E0       Classes.ReturnAddr
 0004:000049B0       Classes.SyncEvent
 0003:00000A6C       Classes.SyncList
 0004:000049C8       Classes.ThreadLock
 0001:0000E938       Classes.TList.Add
 0001:0000E96C       Classes.TList.Clear
 0001:0000E984       Classes.TList.Delete
 0001:0000E918       Classes.TList.Destroy
 0001:0000EA1C       Classes.TList.Error
 0001:0000E9E4       Classes.TList.Error
 0001:0000EA70       Classes.TList.Get
 0001:0000EA98       Classes.TList.Grow
 0001:0000EB7C       Classes.TList.Notify
 0001:0000EACC       Classes.TList.SetCapacity
 0001:0000EB08       Classes.TList.SetCount
 0001:0000EC9C       Classes.TPersistent.Assign
 0001:0000ECB0       Classes.TPersistent.AssignError
 0001:0000ED80       Classes.TPersistent.AssignTo
 0001:0000ED88       Classes.TPersistent.DefineProperties
 0001:0000EC70       Classes.TPersistent.Destroy
 0001:0000ED8C       Classes.TPersistent.GetNamePath
 0001:0000EE3C       Classes.TPersistent.GetOwner
 0001:0000E628       Classes.TRegGroup.Create
 0001:0000E684       Classes.TRegGroup.Destroy
 0001:0000E6E4       Classes.TRegGroup.UnregisterModuleClasses
 0001:0000E790       Classes.TRegGroups.Create
 0001:0000E804       Classes.TRegGroups.Destroy
 0001:0000E864       Classes.TRegGroups.Lock
 0001:0000E870       Classes.TRegGroups.Unlock
 0001:0000E87C       Classes.TRegGroups.UnregisterModuleClasses
 0001:0000EB80       Classes.TThreadList.Create
 0001:0000EBD4       Classes.TThreadList.Destroy
 0001:0000EC50       Classes.TThreadList.LockList
 0001:0000EC64       Classes.TThreadList.UnlockList
 0001:0000E8CC       Classes.UnRegisterModuleClasses
 0001:0000F7B0       DateUtils.DateTimeToUnix
 0002:000002A4       DeskMetricsInstaller.DeskMetricsInstaller
 0001:00010DA4       DeskMetricsInstaller.DeskMetricsMSITrackInstallation
 0001:00010DE4       DeskMetricsInstaller.DeskMetricsMSITrackUninstallation
 0001:00010C74       DeskMetricsInstaller.DeskMetricsTrackInstallation
 0001:00010D0C       DeskMetricsInstaller.DeskMetricsTrackUninstallation
 0001:00010E24       DeskMetricsInstaller.Finalization
 0001:0000F84C       dskMetricsInternals._GenerateGUID
 0001:0000FAE4       dskMetricsInternals._GenerateUserID
 0001:0000FDA8       dskMetricsInternals._GetTimeStamp
 0001:0000FCF4       dskMetricsInternals._GetUserID
 0001:0000FC04       dskMetricsInternals._LoadUserIDReg
 0001:0000FB28       dskMetricsInternals._SaveUserIDReg
 0001:0000FE14       dskMetricsInternals._SendPost
 0001:00010260       dskMetricsInternals._TrackInstallation
 0001:00010394       dskMetricsInternals._TrackUninstallation
 0001:0000F9C0       dskMetricsInternals._UserIDExists
 0001:000104F0       dskMetricsMSI._MSILogString
 0001:000105D4       dskMetricsMSI._MSITrackInstallation
 0001:00010924       dskMetricsMSI._MSITrackUninstallation
 0004:000049FC       dskMetricsVars..1
 0002:0000029C       dskMetricsVars.dskMetricsVars
 0003:00000A80       dskMetricsVars.FAppID
 0003:00000A84       dskMetricsVars.FAppVersion
 0001:0000F7F4       dskMetricsVars.Finalization
 0004:000049F4       dskMetricsVars.FPostAgent
 0004:000049EC       dskMetricsVars.FPostPort
 0004:000049E8       dskMetricsVars.FPostServer
 0004:000049F0       dskMetricsVars.FPostTimeOut
 0004:000049F8       dskMetricsVars.FPostWaitResponse
 0004:000049E0       IniFiles..8
 0001:0000F0F8       IniFiles.Finalization
 0002:0000028C       IniFiles.IniFiles
 0003:00000A70       IniFiles.Values
 0001:000104C8       JwaMsi.MsiCloseHandle
 0001:000104D0       JwaMsiQuery.MsiCreateRecord
 0001:000104E0       JwaMsiQuery.MsiGetPropertyA
 0001:000104E8       JwaMsiQuery.MsiProcessMessage
 0001:000104D8       JwaMsiQuery.MsiRecordSetString
 0004:000049E4       Registry..5
 0001:0000F140       Registry..ERegistryException
 0001:0000F1A0       Registry..TRegistry
 0001:0000F278       Registry.DataTypeToRegData
 0001:0000F728       Registry.Finalization
 0001:0000F234       Registry.IsRelative
 0001:0000F208       Registry.ReadError
 0001:0000F248       Registry.RegDataToDataType
 0002:00000294       Registry.Registry
 0001:0000F3A8       Registry.TRegistry.ChangeKey
 0001:0000F34C       Registry.TRegistry.CloseKey
 0001:0000F2E4       Registry.TRegistry.Create
 0001:0000F2A0       Registry.TRegistry.Create
 0001:0000F320       Registry.TRegistry.Destroy
 0001:0000F3CC       Registry.TRegistry.GetBaseKey
 0001:0000F68C       Registry.TRegistry.GetData
 0001:0000F504       Registry.TRegistry.GetDataInfo
 0001:0000F554       Registry.TRegistry.GetDataSize
 0001:0000F3E0       Registry.TRegistry.OpenKey
 0001:0000F624       Registry.TRegistry.PutData
 0001:0000F5AC       Registry.TRegistry.ReadString
 0001:0000F37C       Registry.TRegistry.SetRootKey
 0001:0000F700       Registry.TRegistry.ValueExists
 0001:0000F57C       Registry.TRegistry.WriteString
 0003:00000A78       Registry.Values
 0001:00004D1C       SysInit.@GetTls
 0001:00004D68       SysInit.@InitLib
 0001:00004C3C       SysInit.AllocTlsBuffer
 0004:000027F4       SysInit.DllProc
 0001:00004CF8       SysInit.ExitProcessTLS
 0001:00004CC0       SysInit.ExitThreadTLS
 0001:00004C48       SysInit.GetTlsSize
 0004:000027F0       SysInit.HInstance
 0001:00004D5C       SysInit.InitializeModule
 0001:00004C94       SysInit.InitProcessTLS
 0001:00004C50       SysInit.InitThreadTLS
 0001:00004C0C       SysInit.LocalAlloc
 0001:00004C14       SysInit.LocalFree
 0003:0000078C       SysInit.Module
 0004:000027ED       SysInit.ModuleIsCpp
 0004:000027EC       SysInit.ModuleIsLib
 0001:00004C1C       SysInit.TlsAlloc
 0004:000027F8       SysInit.tlsBuffer
 0001:00004C24       SysInit.TlsFree
 0001:00004C2C       SysInit.TlsGetValue
 0003:00000788       SysInit.TlsIndex
 0005:0000000C       SysInit.TlsLast
 0003:000007A4       SysInit.TlsProc
 0001:00004C34       SysInit.TlsSetValue
 0004:000005B0       System..6
 0001:000000D0       System..TInterfacedObject
 0001:0000000C       System..TObject
 0001:0000204C       System.@AbstractError
 0001:0000299C       System.@AfterConstruction
 0001:000029EC       System.@BeforeDestruction
 0001:000028DC       System.@CallDynaInst
 0001:00002944       System.@ClassCreate
 0001:00002994       System.@ClassDestroy
 0001:000020BC       System.@Close
 0001:00001EDC       System.@Copy
 0001:00003F14       System.@CopyArray
 0001:00003DF8       System.@CopyRecord
 0001:0000401C       System.@DispCallByIDError
 0001:0000400C       System.@Dispose
 0001:00002D74       System.@DoneExcept
 0001:0000424C       System.@DynArrayAsg
 0001:00004210       System.@DynArrayClear
 0001:00004050       System.@DynArrayHigh
 0001:00004048       System.@DynArrayLength
 0001:00004204       System.@DynArraySetLength
 0001:00002E5C       System.@ExceptionHandler
 0001:00002114       System.@FillChar
 0001:00003DD4       System.@Finalize
 0001:00003CE8       System.@FinalizeArray
 0001:00003C9C       System.@FinalizeRecord
 0001:0000266C       System.@FpuInit
 0001:000025A8       System.@FpuMaskInit
 0001:00001DA0       System.@FreeMem
 0001:00001D84       System.@GetMem
 0001:00003320       System.@Halt
 0001:00003244       System.@Halt0
 0001:00002AEC       System.@HandleAnyException
 0001:00002C18       System.@HandleFinally
 0001:00002CC0       System.@HandleFinallyInternal
 0001:00003100       System.@InitImports
 0001:000030D8       System.@InitResStringImports
 0001:000048E0       System.@IntfClear
 0001:000048F8       System.@IntfCopy
 0001:00002678       System.@IntOver
 0001:00002888       System.@IsClass
 0001:00002578       System.@isNECWindows
 0001:0000373C       System.@LStrAddRef
 0001:0000335C       System.@LStrArrayClr
 0001:0000338C       System.@LStrAsg
 0001:000035E0       System.@LStrCat
 0001:0000362C       System.@LStrCat3
 0001:000036A8       System.@LStrCatN
 0001:00003338       System.@LStrClr
 0001:000037AC       System.@LStrCopy
 0001:000037EC       System.@LStrDelete
 0001:000035A8       System.@LStrFromArray
 0001:00003520       System.@LStrFromChar
 0001:00003530       System.@LStrFromPChar
 0001:00003428       System.@LStrFromPCharLen
 0001:00003560       System.@LStrFromPWChar
 0001:00003494       System.@LStrFromPWCharLen
 0001:0000359C       System.@LStrFromString
 0001:000035C0       System.@LStrFromWStr
 0001:000033D0       System.@LStrLAsg
 0001:000035D4       System.@LStrLen
 0001:00003978       System.@LStrSetLength
 0001:0000374C       System.@LStrToPChar
 0001:000033FC       System.@NewAnsiString
 0001:000039E4       System.@NewWideString
 0001:0000228C       System.@Pow10
 0001:00002D20       System.@RaiseAgain
 0001:00002CF8       System.@RaiseExcept
 0001:00001DB8       System.@ReallocMem
 0001:00002040       System.@ROUND
 0001:0000332C       System.@RunError
 0001:00003010       System.@StartLib
 0001:000001D8       System.@strlen
 0001:00002DA4       System.@TryFinallyExit
 0001:000021B0       System.@ValLong
 0001:00003CD0       System.@VarClr
 0001:00003DE0       System.@VarCopy
 0001:00003A24       System.@WStrArrayClr
 0001:00003A48       System.@WStrAsg
 0001:00003A0C       System.@WStrClr
 0001:00003B88       System.@WStrCmp
 0001:00003C0C       System.@WStrCopy
 0001:00003B5C       System.@WStrFromLStr
 0001:00003A70       System.@WStrFromPCharLen
 0001:00003B20       System.@WStrFromPWChar
 0001:00003AFC       System.@WStrFromPWCharLen
 0001:00003B7C       System.@WStrLen
 0001:00003C58       System.@WStrSetLength
 0001:00003B6C       System.@WStrToPWChar
 0001:00001EAC       System.@_IOTest
 0001:00004024       System.@_llmul
 0004:00000028       System.AbstractErrorProc
 0001:00004770       System.AddModuleUnloadProc
 0001:00004780       System.AddModuleUnloadProc
 0001:0000063C       System.AllocateLargeBlock
 0001:00001D6C       System.AllocMem
 0001:0000057C       System.AllocNewSequentialFeedMediumPool
 0004:000005B8       System.AllocSize2SmallBlockTypeIndX4
 0001:00001310       System.AppendStringToBuffer
 0004:00000020       System.AssertErrorProc
 0001:00000510       System.BinMediumSequentialFeedRemainder
 0001:00001B1C       System.BuildBlockTypeLookupTable
 0001:000011F4       System.CardinalToStrBuf
 0001:00003458       System.CharFromWChar
 0001:00000158       System.CharNext
 0001:00002A68       System.CheckJmp
 0001:00001558       System.CheckSmallBlockPoolForLeaks
 0004:0000003C       System.CmdLine
 0004:00000038       System.CmdShow
 0001:00004058       System.CopyArray
 0003:00000038       System.Copyright
 0003:00000024       System.DebugHook
 0003:00000020       System.Default8087CW
 0004:000005B4       System.DefaultSystemCodePage
 0001:0000429C       System.DelayLoadResourceModule
 0001:0000027C       System.DestroyWindow
 0003:00000778       System.dig
 0004:00000000       System.DispCallByIDProc
 0001:00004070       System.DynArrayClear
 0001:00004078       System.DynArraySetLength
 0003:00000750       System.errCaption
 0001:00001EA0       System.Error
 0003:00000004       System.ErrorAddr
 0001:00001E54       System.ErrorAt
 0004:00000008       System.ErrorProc
 0004:000003E0       System.ErrOutput
 0001:00001E28       System.ExceptAddr
 0004:0000000C       System.ExceptClsProc
 0004:0000001C       System.ExceptionClass
 0001:00001E08       System.ExceptObject
 0004:00000010       System.ExceptObjProc
 0004:00000004       System.ExceptProc
 0003:00000000       System.ExitCode
 0001:00003188       System.ExitDll
 0004:00000040       System.ExitProc
 0001:00000160       System.ExitProcess
 0004:00000024       System.ExitProcessProc
 0004:000027B4       System.ExpectedMemoryLeaks
 0004:000027B8       System.ExpectedMemoryLeaksListLocked
 0003:00000008       System.FileMode
 0001:00004BAC       System.Finalization
 0001:00004068       System.FinalizeArray
 0001:00001D18       System.FinalizeMemoryManager
 0001:00002F44       System.FinalizeUnits
 0001:0000431C       System.FindBS
 0001:00000170       System.FindClose
 0001:00000178       System.FindFirstFile
 0001:00004274       System.FindHInstance
 0001:000042E4       System.FindResourceHInstance
 0001:000020B0       System.Flush
 0001:00002284       System.FPower10
 0001:00001C88       System.FreeAllMemory
 0001:000006A0       System.FreeLargeBlock
 0001:00000180       System.FreeLibrary
 0001:00004BA4       System.GetACP
 0001:00000240       System.GetCmdShow
 0001:00000188       System.GetCommandLine
 0001:00000238       System.GetCurrentThreadId
 0001:000028AC       System.GetDynaMethod
 0001:000011B8       System.GetFirstAndLastSmallBlockInPool
 0001:00001178       System.GetFirstMediumBlockInPool
 0001:00002570       System.GetKeyboardType
 0001:00000190       System.GetLocaleInfo
 0001:00000198       System.GetModuleFileName
 0001:000001A0       System.GetModuleHandle
 0001:00001424       System.GetObjectClass
 0001:000001A8       System.GetProcAddress
 0001:000001B0       System.GetStartupInfo
 0001:00000130       System.GetStdHandle
 0001:000001B8       System.GetThreadLocale
 0004:000027C0       System.InitContext
 0001:00001B60       System.InitializeMemoryManager
 0001:00002FA8       System.InitUnits
 0005:00000004       System.InOutRes
 0004:00000048       System.Input
 0001:000004B0       System.InsertMediumBlockIntoBin
 0001:00000230       System.InterlockedDecrement
 0001:00000228       System.InterlockedIncrement
 0001:00002068       System.InternalFlush
 0001:000013A4       System.InternalIsValidClass
 0001:00003760       System.InternalUniqueString
 0001:00002780       System.InvokeImplGetter
 0001:00001F20       System.IOResult
 0004:00000044       System.IsConsole
 0004:00000034       System.IsLibrary
 0004:00000045       System.IsMultiThread
 0001:00001328       System.IsValidVMTAddress
 0003:00000028       System.JITEnable
 0004:000027A4       System.LargeBlocksCircularList
 0004:000027A0       System.LargeBlocksLocked
 0004:00000714       System.LastSequentiallyFedMediumBlock
 0003:00000030       System.LibModuleList
 0001:000001C0       System.LoadLibraryEx
 0001:00004500       System.LoadResourceModule
 0001:00004B4C       System.LoadResString
 0001:000001C8       System.LoadString
 0001:000002E4       System.LockCmpxchg
 0001:0000144C       System.LockExpectedMemoryLeaksList
 0001:000005F4       System.LockLargeBlocks
 0001:000001D0       System.lstrcpyn
 0004:0000002C       System.MainInstance
 0004:00000030       System.MainThreadID
 0001:00003124       System.MakeErrorMessage
 0001:00002DBC       System.MapToRunError
 0004:00000720       System.MediumBlockBinBitmaps
 0004:0000071C       System.MediumBlockBinGroupBitmap
 0004:000007A0       System.MediumBlockBins
 0004:00000700       System.MediumBlockPoolsCircularList
 0004:00000710       System.MediumBlocksLocked
 0004:00000718       System.MediumSequentialFeedBytesLeft
 0003:0000071C       System.MemoryManager
 0001:00000168       System.MessageBox
 0004:000006FE       System.MinimumBlockAlignment
 0004:000027BC       System.MMSharingWindow
 0003:00000034       System.ModuleUnloadList
 0001:00001F40       System.Move
 0001:000002EC       System.Move12
 0001:00000300       System.Move20
 0001:00000320       System.Move28
 0001:0000034C       System.Move36
 0001:0000036C       System.Move44
 0001:00000390       System.Move52
 0001:000003BC       System.Move60
 0001:000003EC       System.Move68
 0001:00000424       System.MoveX16L4
 0001:00000454       System.MoveX8L4
 0001:000001E0       System.MultiByteToWideChar
 0004:000005AD       System.NeverSleepOnMMThreadContention
 0001:00001154       System.NextMediumBlock
 0003:0000002C       System.NoErrMsg
 0001:00002A54       System.NotifyAnyExcept
 0001:00002A3C       System.NotifyExcept
 0001:00002A88       System.NotifyExceptFinally
 0001:00004804       System.NotifyModuleUnload
 0001:00002A18       System.NotifyNonDelphiException
 0001:000029FC       System.NotifyReRaise
 0001:00002AB0       System.NotifyTerminate
 0001:00002ACC       System.NotifyUnhandled
 0004:00000214       System.Output
 0001:00003834       System.Pos
 0001:00000138       System.RaiseException
 0004:00000014       System.RaiseExceptionProc
 0005:00000000       System.RaiseListPtr
 0001:00000744       System.ReallocateLargeBlock
 0001:000001E8       System.RegCloseKey
 0001:00004860       System.RegisterModule
 0001:000001F0       System.RegOpenKeyEx
 0001:000001F8       System.RegQueryValueEx
 0003:00000734       System.reMap
 0001:00000470       System.RemoveMediumFreeBlock
 0001:000047A0       System.RemoveModuleUnloadProc
 0001:00004778       System.RemoveModuleUnloadProc
 0004:000005AC       System.ReportMemoryLeaksOnShutdown
 0001:00000140       System.RtlUnwind
 0004:00000018       System.RTLUnwindProc
 0003:00000758       System.runErrMsg
 0001:00001E48       System.RunErrorAt
 0001:000016A4       System.ScanForMemoryLeaks
 0001:00002EFC       System.SetExceptionHandler
 0001:00001ECC       System.SetInOutRes
 0001:00000274       System.Sleep
 0003:0000003C       System.SmallBlockTypes
 0001:00001124       System.SysAllocMem
 0001:00000210       System.SysAllocStringLen
 0001:00000C14       System.SysFreeMem
 0001:00000220       System.SysFreeString
 0001:00000890       System.SysGetMem
 0001:00000E0C       System.SysReallocMem
 0001:00000218       System.SysReAllocStringLen
 0001:000014C0       System.SysRegisterExpectedMemoryLeak
 0002:00000000       System.System
 0001:00001500       System.SysUnregisterExpectedMemoryLeak
 0004:00000046       System.Test8086
 0001:00004924       System.TInterfacedObject.AfterConstruction
 0001:00004930       System.TInterfacedObject.BeforeDestruction
 0001:00004940       System.TInterfacedObject.NewInstance
 0001:00004950       System.TInterfacedObject.QueryInterface
 0001:00004978       System.TInterfacedObject._AddRef
 0001:0000498C       System.TInterfacedObject._Release
 0001:00002914       System.TObject.AfterConstruction
 0001:00002918       System.TObject.BeforeDestruction
 0001:00002680       System.TObject.ClassName
 0001:00002760       System.TObject.CleanupInstance
 0001:000026CC       System.TObject.Create
 0001:00002910       System.TObject.DefaultHandler
 0001:000026EC       System.TObject.Destroy
 0001:0000291C       System.TObject.Dispatch
 0001:000026FC       System.TObject.Free
 0001:000026B0       System.TObject.FreeInstance
 0001:000027B0       System.TObject.GetInterface
 0001:00002844       System.TObject.GetInterfaceEntry
 0001:000028F4       System.TObject.InheritsFrom
 0001:00002708       System.TObject.InitInstance
 0001:000026C4       System.TObject.InstanceSize
 0001:00002694       System.TObject.NewInstance
 0001:00002908       System.TObject.SafeCallException
 0001:0000433C       System.ToLongPath
 0001:00000148       System.UnhandledExceptionFilter
 0001:000049B4       System.UnicodeToUtf8
 0001:000037A4       System.UniqueString
 0001:00004870       System.UnregisterModule
 0001:00002F1C       System.UnsetExceptionHandler
 0001:00004A90       System.UTF8Encode
 0003:00000010       System.VarAddRefProc
 0003:0000000C       System.VarClearProc
 0003:00000014       System.VarCopyProc
 0003:00000018       System.VarToLStrProc
 0003:0000001C       System.VarToWStrProc
 0001:00000264       System.VirtualAlloc
 0001:0000026C       System.VirtualFree
 0001:00000208       System.VirtualQuery
 0001:00003478       System.WCharFromChar
 0001:00000200       System.WideCharToMultiByte
 0001:000031B8       System.WriteErrorMessage
 0001:00000150       System.WriteFile
 0001:000039DC       System.WStrError
 0001:000039FC       System.WStrSet
 0004:00002914       SysUtils..35
 0001:00005AA4       SysUtils..EAbstractError
 0001:0000587C       SysUtils..EAccessViolation
 0001:00005A44       SysUtils..EAssertionFailed
 0001:00005990       SysUtils..EControlC
 0001:00005820       SysUtils..EConvertError
 0001:000054A4       SysUtils..EDivByZero
 0001:00005394       SysUtils..EExternal
 0001:000053EC       SysUtils..EExternalException
 0001:00005284       SysUtils..EHeapException
 0001:0000533C       SysUtils..EInOutError
 0001:0000544C       SysUtils..EIntError
 0001:00005B00       SysUtils..EIntfCastError
 0001:00005554       SysUtils..EIntOverflow
 0001:000057C4       SysUtils..EInvalidCast
 0001:00005608       SysUtils..EInvalidOp
 0001:00005768       SysUtils..EInvalidPointer
 0001:000055B0       SysUtils..EMathError
 0001:00005B5C       SysUtils..EOSError
 0001:000052E0       SysUtils..EOutOfMemory
 0001:000056B8       SysUtils..EOverflow
 0001:000058DC       SysUtils..EPrivilege
 0001:000054FC       SysUtils..ERangeError
 0001:00005BB4       SysUtils..ESafecallException
 0001:00005934       SysUtils..EStackOverflow
 0001:00005710       SysUtils..EUnderflow
 0001:000059E8       SysUtils..EVariantError
 0001:0000521C       SysUtils..Exception
 0001:00005660       SysUtils..EZeroDivide
 0001:00005D44       SysUtils..TMultiReadExclusiveWriteSynchronizer
 0001:00005C68       SysUtils..TThreadLocalCounter
 0001:000098B4       SysUtils.AbstractErrorHandler
 0001:0000607C       SysUtils.AnsiCompareText
 0001:0000A0EC       SysUtils.AnsiPos
 0001:0000A124       SysUtils.AnsiStrPos
 0001:0000A1C4       SysUtils.AnsiStrRScan
 0001:0000A1F8       SysUtils.AnsiStrScan
 0001:00006044       SysUtils.AnsiUpperCase
 0001:00007820       SysUtils.AppendChars
 0001:00007C04       SysUtils.AppendFormat
 0001:00007880       SysUtils.AppendNumber
 0001:00007864       SysUtils.AppendString
 0001:00009898       SysUtils.AssertErrorHandler
 0001:0000655C       SysUtils.BackfillGetDiskFreeSpaceEx
 0001:00006484       SysUtils.BoolToStr
 0001:00009E68       SysUtils.ByteToCharIndex
 0001:00009E44       SysUtils.ByteToCharLen
 0001:00009E08       SysUtils.ByteType
 0001:00009D94       SysUtils.ByteTypeTest
 0001:0000A07C       SysUtils.CharLength
 0001:00009F60       SysUtils.CharToByteIndex
 0001:00009FE4       SysUtils.CharToByteLen
 0001:0000AF38       SysUtils.ClearHashTables
 0001:00005E10       SysUtils.CoCreateGuid
 0001:00005F84       SysUtils.CompareText
 0001:00006364       SysUtils.CompareWith
 0001:000092F8       SysUtils.ConvertAddr
 0001:00007970       SysUtils.ConvertEraString
 0001:00005DD4       SysUtils.ConvertError
 0001:00005DEC       SysUtils.ConvertErrorFmt
 0001:00007AEC       SysUtils.ConvertYearString
 0001:00005E30       SysUtils.CoTaskMemFree
 0001:00009ED0       SysUtils.CountChars
 0001:000097DC       SysUtils.CreateAssertException
 0001:00009964       SysUtils.CreateAVObject
 0001:00005E18       SysUtils.CreateGUID
 0001:0000970C       SysUtils.CreateInOutError
 0003:0000082C       SysUtils.cSimpleBoolStrs
 0004:0000280C       SysUtils.CurrencyDecimals
 0004:00002808       SysUtils.CurrencyFormat
 0004:00002804       SysUtils.CurrencyString
 0001:0000780C       SysUtils.CurrentYear
 0001:000072E0       SysUtils.CurrToStr
 0001:00006114       SysUtils.CvtInt
 0001:00006180       SysUtils.CvtInt64
 0003:0000084C       SysUtils.CWNear
 0004:0000280D       SysUtils.DateSeparator
 0001:000083BC       SysUtils.DateTimeToString
 0001:000073A0       SysUtils.DateTimeToTimeStamp
 0001:00007794       SysUtils.DayOfWeek
 0003:00000848       SysUtils.DCon10
 0004:0000280B       SysUtils.DecimalSeparator
 0001:00007774       SysUtils.DecodeDate
 0001:00007628       SysUtils.DecodeDateFully
 0001:00007494       SysUtils.DecodeTime
 0003:000008D8       SysUtils.DefLongDayNames
 0003:0000088C       SysUtils.DefLongMonthNames
 0003:000008BC       SysUtils.DefShortDayNames
 0003:0000085C       SysUtils.DefShortMonthNames
 0001:00005DB8       SysUtils.DivMod
 0001:00009C8C       SysUtils.DoneExceptions
 0001:000096E0       SysUtils.EHeapException.FreeInstance
 0003:000007B4       SysUtils.EmptyStr
 0003:000007B8       SysUtils.EmptyWideStr
 0001:000075F8       SysUtils.EncodeDate
 0001:00007454       SysUtils.EncodeTime
 0001:00008F64       SysUtils.EnumEraNames
 0001:00008FA0       SysUtils.EnumEraYearOffsets
 0004:000028D4       SysUtils.EraNames
 0001:000086CC       SysUtils.EraToYear
 0004:000028F0       SysUtils.EraYearOffsets
 0001:0000978C       SysUtils.ErrorHandler
 0003:000008F4       SysUtils.ErrorMap
 0001:00009BF8       SysUtils.ExceptHandler
 0001:00009554       SysUtils.Exception.Create
 0001:00009590       SysUtils.Exception.CreateFmt
 0001:00009610       SysUtils.Exception.CreateRes
 0001:0000964C       SysUtils.Exception.CreateResFmt
 0001:00009304       SysUtils.ExceptionErrorMessage
 0003:0000092C       SysUtils.ExceptMap
 0001:00006524       SysUtils.ExtractFileName
 0004:00002910       SysUtils.FalseBoolStrs
 0003:0000083C       SysUtils.FCon1E18
 0001:0000B238       SysUtils.Finalization
 0004:00004908       SysUtils.FLanguages
 0001:00006F70       SysUtils.FloatToDecimal
 0001:000072B0       SysUtils.FloatToStr
 0001:00006C9C       SysUtils.FloatToText
 0003:00000850       SysUtils.FMSecsPerDay
 0001:00006B7C       SysUtils.FmtStr
 0001:00006B68       SysUtils.Format
 0003:00000858       SysUtils.Format
 0001:000067B0       SysUtils.FormatBuf
 0001:000067A4       SysUtils.FormatClearStr
 0001:00006728       SysUtils.FormatError
 0003:00000834       SysUtils.FormatErrorStrs
 0001:00006780       SysUtils.FormatVarToStr
 0001:0000AF28       SysUtils.FreeAndNil
 0001:0000AA6C       SysUtils.FreeTerminateProcs
 0001:000078CC       SysUtils.GetCount
 0001:000078F8       SysUtils.GetDate
 0001:000085E4       SysUtils.GetDateOrder
 0003:00000828       SysUtils.GetDiskFreeSpaceEx
 0001:00009018       SysUtils.GetEraNamesAndYearOffsets
 0001:00008678       SysUtils.GetEraYearOffset
 0001:0000994C       SysUtils.GetExceptionClass
 0001:00009B30       SysUtils.GetExceptionObject
 0001:0000A358       SysUtils.GetFormatSettings
 0001:00008DD8       SysUtils.GetLocaleChar
 0001:00008D8C       SysUtils.GetLocaleStr
 0001:00008E40       SysUtils.GetMonthDayNames
 0001:00007930       SysUtils.GetTime
 0001:00005E38       SysUtils.GUIDToString
 0001:0000A880       SysUtils.HashName
 0003:00000824       SysUtils.HexDisplayPrefix
 0003:00000854       SysUtils.IMSecsPerDay
 0001:0000AA90       SysUtils.InitDriveSpacePtr
 0001:00009C08       SysUtils.InitExceptions
 0001:0000A238       SysUtils.InitLeadBytes
 0001:00009D24       SysUtils.InitPlatformId
 0001:0000A294       SysUtils.InitSysLocale
 0001:0000AAF8       SysUtils.InterlockedDecrement
 0001:0000AB04       SysUtils.InterlockedExchange
 0001:0000AB0C       SysUtils.InterlockedExchangeAdd
 0001:0000AAEC       SysUtils.InterlockedIncrement
 0001:00006274       SysUtils.IntToHex
 0001:0000624C       SysUtils.IntToStr
 0001:00006160       SysUtils.IntToStr
 0004:0000291C       SysUtils.InvalidPointer
 0001:000074F0       SysUtils.IsLeapYear
 0001:000064D0       SysUtils.LastDelimiter
 0003:00000804       SysUtils.LeadBytes
 0004:000028D2       SysUtils.ListSeparator
 0001:00008E04       SysUtils.LocalGetLocaleStr
 0004:00002814       SysUtils.LongDateFormat
 0004:000028A8       SysUtils.LongDayNames
 0004:0000285C       SysUtils.LongMonthNames
 0004:00002828       SysUtils.LongTimeFormat
 0001:00005EFC       SysUtils.LowerCase
 0001:000098CC       SysUtils.MapException
 0001:0000A8A8       SysUtils.ModuleUnloaded
 0003:000007D4       SysUtils.MonthDays
 0004:00002809       SysUtils.NegCurrFormat
 0001:0000A0B4       SysUtils.NextCharIndex
 0001:000077BC       SysUtils.Now
 0004:00002918       SysUtils.OutOfMemory
 0001:00006C58       SysUtils.PutExponent
 0001:00009888       SysUtils.RaiseAssertException
 0001:0000A9C8       SysUtils.RaiseLastOSError
 0001:0000A9D4       SysUtils.RaiseLastOSError
 0001:00006020       SysUtils.SameText
 0001:00008418       SysUtils.ScanBlanks
 0001:000085A8       SysUtils.ScanChar
 0001:00008728       SysUtils.ScanDate
 0001:0000843C       SysUtils.ScanNumber
 0001:000084D0       SysUtils.ScanString
 0001:00008A74       SysUtils.ScanTime
 0001:00008630       SysUtils.ScanToNumber
 0004:00002810       SysUtils.ShortDateFormat
 0004:0000288C       SysUtils.ShortDayNames
 0004:0000282C       SysUtils.ShortMonthNames
 0004:00002824       SysUtils.ShortTimeFormat
 0001:0000948C       SysUtils.ShowException
 0001:0000A9C0       SysUtils.Sleep
 0001:00006704       SysUtils.StrAlloc
 0001:00009E2C       SysUtils.StrByteType
 0001:0000A054       SysUtils.StrCharLength
 0001:00006718       SysUtils.StrDispose
 0001:00005E28       SysUtils.StringFromCLSID
 0001:0000A6D0       SysUtils.StringReplace
 0001:00006610       SysUtils.StrLCopy
 0001:000065D0       SysUtils.StrLen
 0001:00006B28       SysUtils.StrLFmt
 0001:00006644       SysUtils.StrLIComp
 0001:00006600       SysUtils.StrMove
 0001:0000A074       SysUtils.StrNextChar
 0001:000066F0       SysUtils.StrPas
 0001:0000669C       SysUtils.StrPos
 0001:00006688       SysUtils.StrScan
 0001:0000629C       SysUtils.StrToIntDef
 0001:00008D40       SysUtils.SysErrorMessage
 0004:000028C4       SysUtils.SysLocale
 0002:000000AC       SysUtils.SysUtils
 0003:000009DC       SysUtils.TerminateProcList
 0001:0000719C       SysUtils.TextToFloat
 0004:0000280A       SysUtils.ThousandSeparator
 0004:0000281C       SysUtils.TimeAMString
 0004:00002820       SysUtils.TimePMString
 0004:00002818       SysUtils.TimeSeparator
 0001:0000AE50       SysUtils.TMultiReadExclusiveWriteSynchronizer.BeginRead
 0001:0000AD54       SysUtils.TMultiReadExclusiveWriteSynchronizer.BeginWrite
 0001:0000AD10       SysUtils.TMultiReadExclusiveWriteSynchronizer.BlockReaders
 0001:0000AC54       SysUtils.TMultiReadExclusiveWriteSynchronizer.Create
 0001:0000ACC8       SysUtils.TMultiReadExclusiveWriteSynchronizer.Destroy
 0001:0000AEC0       SysUtils.TMultiReadExclusiveWriteSynchronizer.EndRead
 0001:0000AE00       SysUtils.TMultiReadExclusiveWriteSynchronizer.EndWrite
 0001:0000AD28       SysUtils.TMultiReadExclusiveWriteSynchronizer.UnblockOneWriter
 0001:0000AD1C       SysUtils.TMultiReadExclusiveWriteSynchronizer.UnblockReaders
 0001:0000AD34       SysUtils.TMultiReadExclusiveWriteSynchronizer.WaitForReadSignal
 0001:0000AD44       SysUtils.TMultiReadExclusiveWriteSynchronizer.WaitForWriteSignal
 0001:000090C8       SysUtils.TranslateDateFormat
 0001:000060C0       SysUtils.Trim
 0004:0000290C       SysUtils.TrueBoolStrs
 0001:0000752C       SysUtils.TryEncodeDate
 0001:000073E4       SysUtils.TryEncodeTime
 0001:000063E8       SysUtils.TryStrToBool
 0001:00007384       SysUtils.TryStrToCurr
 0001:00008CA4       SysUtils.TryStrToDateTime
 0001:00007358       SysUtils.TryStrToFloat
 0001:0000732C       SysUtils.TryStrToFloat
 0001:00007310       SysUtils.TryStrToFloat
 0001:000062B4       SysUtils.TryStrToInt
 0001:00008C6C       SysUtils.TryStrToTime
 0001:0000AC00       SysUtils.TThreadLocalCounter.Delete
 0001:0000AB14       SysUtils.TThreadLocalCounter.Destroy
 0001:0000AB6C       SysUtils.TThreadLocalCounter.HashIndex
 0001:0000AB88       SysUtils.TThreadLocalCounter.Open
 0001:0000AC10       SysUtils.TThreadLocalCounter.Recycle
 0003:000007D0       SysUtils.TwoDigitYearCenturyWindow
 0004:00003914       SysUtils.UnitHashBuckets
 0001:00005E74       SysUtils.UpperCase
 0004:00002920       SysUtils.ValidatedUnitHashBuckets
 0001:000062D4       SysUtils.VerifyBoolStrArray
 0003:000007C8       SysUtils.Win32BuildNumber
 0003:000007CC       SysUtils.Win32CSDVersion
 0003:000007C0       SysUtils.Win32MajorVersion
 0003:000007C4       SysUtils.Win32MinorVersion
 0003:000007BC       SysUtils.Win32Platform
 0004:000049A8       TypInfo..6
 0003:00000A60       TypInfo.BooleanIdents
 0003:00000A68       TypInfo.DotSep
 0001:0000E378       TypInfo.Finalization
 0002:000001F0       TypInfo.TypInfo
 0004:00004988       Variants..81
 0001:0000BF94       Variants..EVariantArrayCreateError
 0001:0000BF2C       Variants..EVariantArrayLockedError
 0001:0000BEC8       Variants..EVariantBadIndexError
 0001:0000BE64       Variants..EVariantBadVarTypeError
 0001:0000C12C       Variants..EVariantDispatchError
 0001:0000BE00       Variants..EVariantInvalidArgError
 0001:0000BCD4       Variants..EVariantInvalidOpError
 0001:0000BFFC       Variants..EVariantNotImplError
 0001:0000C060       Variants..EVariantOutOfMemoryError
 0001:0000BD9C       Variants..EVariantOverflowError
 0001:0000BD38       Variants..EVariantTypeCastError
 0001:0000C0C8       Variants..EVariantUnexpectedError
 0001:0000BC08       Variants..TCustomVariantType
 0001:0000C658       Variants.@DispInvokeError
 0001:0000DC00       Variants.@VarAddRef
 0001:0000C930       Variants.@VarClear
 0001:0000C944       Variants.@VarClr
 0001:0000CC58       Variants.@VarCopy
 0001:0000CF8C       Variants.@VarToLStr
 0001:0000D6AC       Variants.@VarToWStr
 0003:000009F0       Variants.BooleanToStringRule
 0001:0000CD0C       Variants.BoolToWStrViaOS
 0004:00004980       Variants.ChangeAnyProc
 0003:000009F4       Variants.CInvalidCustomVariantType
 0004:0000497C       Variants.ClearAnyProc
 0001:0000DF3C       Variants.ClearVariantTypeList
 0003:00000A4C       Variants.CRelationshipToBoolean
 0003:000009F8       Variants.CText
 0001:0000CC9C       Variants.CurrToWStrViaOS
 0001:0000CCD4       Variants.DateToWStrViaOS
 0004:00004968       Variants.EmptyParam
 0001:0000E29C       Variants.Finalization
 0001:0000E1E0       Variants.FindCustomVariantType
 0001:0000C6AC       Variants.InBounds
 0001:0000C94C       Variants.InBounds
 0001:0000C6DC       Variants.Increment
 0001:0000C97C       Variants.Increment
 0004:0000498C       Variants.LVarTypes
 0004:00004990       Variants.LVarTypeSync
 0003:000009EC       Variants.NullAsStringValue
 0003:000009E8       Variants.NullStrictConvert
 0004:00004984       Variants.RefAnyProc
 0001:0000DF0C       Variants.SetClearVarToEmptyParam
 0001:0000DEF4       Variants.SetVarAsError
 0001:0000DFA8       Variants.TCustomVariantType.BinaryOp
 0001:0000DFB4       Variants.TCustomVariantType.Cast
 0001:0000DFEC       Variants.TCustomVariantType.CastTo
 0001:0000E078       Variants.TCustomVariantType.CastToOle
 0001:0000E034       Variants.TCustomVariantType.Compare
 0001:0000E040       Variants.TCustomVariantType.CompareOp
 0001:0000E0B4       Variants.TCustomVariantType.Destroy
 0001:0000E194       Variants.TCustomVariantType.DispInvoke
 0001:0000E140       Variants.TCustomVariantType.IsClear
 0001:0000E144       Variants.TCustomVariantType.LeftPromotion
 0001:0000E158       Variants.TCustomVariantType.OlePromotion
 0001:0000E1B8       Variants.TCustomVariantType.QueryInterface
 0001:0000E160       Variants.TCustomVariantType.RaiseCastError
 0001:0000E170       Variants.TCustomVariantType.RaiseDispError
 0001:0000E168       Variants.TCustomVariantType.RaiseInvalidOp
 0001:0000E178       Variants.TCustomVariantType.RightPromotion
 0001:0000E18C       Variants.TCustomVariantType.UnaryOp
 0001:0000E1A0       Variants.TCustomVariantType._AddRef
 0001:0000E1AC       Variants.TCustomVariantType._Release
 0001:0000C3C4       Variants.TranslateResult
 0001:0000C738       Variants.VarArrayClear
 0001:0000C9D8       Variants.VarArrayCopyForEach
 0001:0000C370       Variants.VarArrayCreateError
 0001:0000C1E4       Variants.VarCastError
 0001:0000C190       Variants.VarCastError
 0001:0000C8B4       Variants.VarClearDeep
 0001:0000CBA4       Variants.VarCopyCopyProc
 0001:0000CBAC       Variants.VarCopyDeep
 0004:00004978       Variants.VarDispProc
 0002:00000144       Variants.Variants
 0001:0000C280       Variants.VarInvalidOp
 0001:0000C2D4       Variants.VarOverflowError
 0001:0000C618       Variants.VarResultCheck
 0001:0000C624       Variants.VarResultCheck
 0001:0000CEA0       Variants.VarToLStrAny
 0001:0000CF04       Variants.VarToLStrCustom
 0001:0000CDD4       Variants.VarToLStrViaOS
 0001:0000D580       Variants.VarToWStrAny
 0001:0000D5E4       Variants.VarToWStrCustom
 0001:0000D4C8       Variants.VarToWStrViaOS
 0001:0000DD84       Variants.VarTypeAsText
 0004:00004964       VarUtils..5
 0001:0000B658       VarUtils.BackupVarBoolFromStr
 0001:0000B7BC       VarUtils.BackupVarBStrFromBool
 0001:0000B6D8       VarUtils.BackupVarBStrFromCy
 0001:0000B748       VarUtils.BackupVarBStrFromDate
 0001:0000B5EC       VarUtils.BackupVarCyFromStr
 0001:0000B580       VarUtils.BackupVarDateFromStr
 0001:0000B43C       VarUtils.BackupVarI4FromStr
 0001:0000B3E8       VarUtils.BackupVariantChangeTypeEx
 0001:0000B4A8       VarUtils.BackupVarR4FromStr
 0001:0000B514       VarUtils.BackupVarR8FromStr
 0001:0000B424       VarUtils.BiUnimplemented
 0001:0000B430       VarUtils.CmpUnimplemented
 0003:000009E0       VarUtils.CResult
 0001:0000BB88       VarUtils.Finalization
 0001:0000B850       VarUtils.FindProc
 0001:0000B87C       VarUtils.InitializeVarUtils
 0001:0000B830       VarUtils.SafeArrayCreate
 0001:0000B838       VarUtils.SafeArrayGetLBound
 0001:0000B840       VarUtils.SafeArrayGetUBound
 0001:0000B848       VarUtils.SafeArrayPtrOfIndex
 0001:0000B418       VarUtils.UniUnimplemented
 0004:00004918       VarUtils.VarAdd
 0004:00004930       VarUtils.VarAnd
 0004:00004954       VarUtils.VarBoolFromStr
 0004:00004960       VarUtils.VarBstrFromBool
 0004:00004958       VarUtils.VarBstrFromCy
 0004:0000495C       VarUtils.VarBstrFromDate
 0004:0000493C       VarUtils.VarCmp
 0004:00004950       VarUtils.VarCyFromStr
 0004:0000494C       VarUtils.VarDateFromStr
 0004:00004924       VarUtils.VarDiv
 0004:00004940       VarUtils.VarI4FromStr
 0001:0000B3E0       VarUtils.VariantChangeType
 0004:0000490C       VarUtils.VariantChangeTypeEx
 0001:0000B3D0       VarUtils.VariantClear
 0001:0000B3D8       VarUtils.VariantCopy
 0001:0000B3C8       VarUtils.VariantInit
 0004:00004928       VarUtils.VarIDiv
 0004:0000492C       VarUtils.VarMod
 0004:00004920       VarUtils.VarMul
 0004:00004910       VarUtils.VarNeg
 0004:00004914       VarUtils.VarNot
 0004:00004934       VarUtils.VarOr
 0004:00004944       VarUtils.VarR4FromStr
 0004:00004948       VarUtils.VarR8FromStr
 0004:0000491C       VarUtils.VarSub
 0002:00000134       VarUtils.VarUtils
 0004:00004938       VarUtils.VarXor
 0004:000027FC       Windows..3
 0001:00004EC0       Windows.CharNext
 0001:00004EC8       Windows.CharToOemA
 0001:00004ED0       Windows.CharUpperBuff
 0001:00004DE0       Windows.CloseHandle
 0001:00004DE8       Windows.CompareString
 0001:00004DF0       Windows.CreateEvent
 0001:00004DF8       Windows.DeleteCriticalSection
 0001:00004E00       Windows.EnterCriticalSection
 0001:00004E08       Windows.EnumCalendarInfoA
 0001:00004EF0       Windows.Finalization
 0001:00004E10       Windows.FormatMessage
 0001:00004E18       Windows.FreeLibrary
 0001:00004E20       Windows.GetCPInfo
 0001:00004E28       Windows.GetCurrentThreadId
 0001:00004E30       Windows.GetDateFormat
 0001:00004E38       Windows.GetDiskFreeSpaceA
 0001:00004E40       Windows.GetLastError
 0001:00004E50       Windows.GetLocaleInfo
 0001:00004E48       Windows.GetLocalTime
 0001:00004E58       Windows.GetModuleFileName
 0001:00004E60       Windows.GetModuleHandle
 0001:00004E68       Windows.GetProcAddress
 0001:00004E70       Windows.GetStdHandle
 0001:00004ED8       Windows.GetSystemMetrics
 0001:00004E78       Windows.GetThreadLocale
 0001:00004E80       Windows.GetVersionEx
 0004:00002800       Windows.HtmlHelpModule
 0001:00004E88       Windows.InitializeCriticalSection
 0001:00004E90       Windows.LeaveCriticalSection
 0001:00004EE0       Windows.LoadString
 0001:00004EE8       Windows.MessageBox
 0001:00004DB0       Windows.RegCloseKey
 0001:00004DB8       Windows.RegCreateKeyEx
 0001:00004DC0       Windows.RegFlushKey
 0001:00004DC8       Windows.RegOpenKeyEx
 0001:00004DD0       Windows.RegQueryValueEx
 0001:00004DD8       Windows.RegSetValueEx
 0001:00004E98       Windows.ResetEvent
 0001:00004EA0       Windows.SetEvent
 0001:00004EA8       Windows.VirtualQuery
 0001:00004EB0       Windows.WaitForSingleObject
 0002:00000098       Windows.Windows
 0001:00004EB8       Windows.WriteFile
 0001:0000F770       WinInet.HttpOpenRequest
 0001:0000F778       WinInet.HttpSendRequestA
 0001:0000F780       WinInet.InternetCloseHandle
 0001:0000F788       WinInet.InternetConnect
 0001:0000F790       WinInet.InternetOpenW
 0001:0000F798       WinInet.InternetQueryOption
 0001:0000F7A0       WinInet.InternetReadFile
 0001:0000F7A8       WinInet.InternetSetOption


  Address             Publics by Value

 0001:0000000C       System..TObject
 0001:000000D0       System..TInterfacedObject
 0001:00000130       System.GetStdHandle
 0001:00000138       System.RaiseException
 0001:00000140       System.RtlUnwind
 0001:00000148       System.UnhandledExceptionFilter
 0001:00000150       System.WriteFile
 0001:00000158       System.CharNext
 0001:00000160       System.ExitProcess
 0001:00000168       System.MessageBox
 0001:00000170       System.FindClose
 0001:00000178       System.FindFirstFile
 0001:00000180       System.FreeLibrary
 0001:00000188       System.GetCommandLine
 0001:00000190       System.GetLocaleInfo
 0001:00000198       System.GetModuleFileName
 0001:000001A0       System.GetModuleHandle
 0001:000001A8       System.GetProcAddress
 0001:000001B0       System.GetStartupInfo
 0001:000001B8       System.GetThreadLocale
 0001:000001C0       System.LoadLibraryEx
 0001:000001C8       System.LoadString
 0001:000001D0       System.lstrcpyn
 0001:000001D8       System.@strlen
 0001:000001E0       System.MultiByteToWideChar
 0001:000001E8       System.RegCloseKey
 0001:000001F0       System.RegOpenKeyEx
 0001:000001F8       System.RegQueryValueEx
 0001:00000200       System.WideCharToMultiByte
 0001:00000208       System.VirtualQuery
 0001:00000210       System.SysAllocStringLen
 0001:00000218       System.SysReAllocStringLen
 0001:00000220       System.SysFreeString
 0001:00000228       System.InterlockedIncrement
 0001:00000230       System.InterlockedDecrement
 0001:00000238       System.GetCurrentThreadId
 0001:00000240       System.GetCmdShow
 0001:00000264       System.VirtualAlloc
 0001:0000026C       System.VirtualFree
 0001:00000274       System.Sleep
 0001:0000027C       System.DestroyWindow
 0001:000002E4       System.LockCmpxchg
 0001:000002EC       System.Move12
 0001:00000300       System.Move20
 0001:00000320       System.Move28
 0001:0000034C       System.Move36
 0001:0000036C       System.Move44
 0001:00000390       System.Move52
 0001:000003BC       System.Move60
 0001:000003EC       System.Move68
 0001:00000424       System.MoveX16L4
 0001:00000454       System.MoveX8L4
 0001:00000470       System.RemoveMediumFreeBlock
 0001:000004B0       System.InsertMediumBlockIntoBin
 0001:00000510       System.BinMediumSequentialFeedRemainder
 0001:0000057C       System.AllocNewSequentialFeedMediumPool
 0001:000005F4       System.LockLargeBlocks
 0001:0000063C       System.AllocateLargeBlock
 0001:000006A0       System.FreeLargeBlock
 0001:00000744       System.ReallocateLargeBlock
 0001:00000890       System.SysGetMem
 0001:00000C14       System.SysFreeMem
 0001:00000E0C       System.SysReallocMem
 0001:00001124       System.SysAllocMem
 0001:00001154       System.NextMediumBlock
 0001:00001178       System.GetFirstMediumBlockInPool
 0001:000011B8       System.GetFirstAndLastSmallBlockInPool
 0001:000011F4       System.CardinalToStrBuf
 0001:00001310       System.AppendStringToBuffer
 0001:00001328       System.IsValidVMTAddress
 0001:000013A4       System.InternalIsValidClass
 0001:00001424       System.GetObjectClass
 0001:0000144C       System.LockExpectedMemoryLeaksList
 0001:000014C0       System.SysRegisterExpectedMemoryLeak
 0001:00001500       System.SysUnregisterExpectedMemoryLeak
 0001:00001558       System.CheckSmallBlockPoolForLeaks
 0001:000016A4       System.ScanForMemoryLeaks
 0001:00001B1C       System.BuildBlockTypeLookupTable
 0001:00001B60       System.InitializeMemoryManager
 0001:00001C88       System.FreeAllMemory
 0001:00001D18       System.FinalizeMemoryManager
 0001:00001D6C       System.AllocMem
 0001:00001D84       System.@GetMem
 0001:00001DA0       System.@FreeMem
 0001:00001DB8       System.@ReallocMem
 0001:00001E08       System.ExceptObject
 0001:00001E28       System.ExceptAddr
 0001:00001E48       System.RunErrorAt
 0001:00001E54       System.ErrorAt
 0001:00001EA0       System.Error
 0001:00001EAC       System.@_IOTest
 0001:00001ECC       System.SetInOutRes
 0001:00001EDC       System.@Copy
 0001:00001F20       System.IOResult
 0001:00001F40       System.Move
 0001:00002040       System.@ROUND
 0001:0000204C       System.@AbstractError
 0001:00002068       System.InternalFlush
 0001:000020B0       System.Flush
 0001:000020BC       System.@Close
 0001:00002114       System.@FillChar
 0001:000021B0       System.@ValLong
 0001:00002284       System.FPower10
 0001:0000228C       System.@Pow10
 0001:00002570       System.GetKeyboardType
 0001:00002578       System.@isNECWindows
 0001:000025A8       System.@FpuMaskInit
 0001:0000266C       System.@FpuInit
 0001:00002678       System.@IntOver
 0001:00002680       System.TObject.ClassName
 0001:00002694       System.TObject.NewInstance
 0001:000026B0       System.TObject.FreeInstance
 0001:000026C4       System.TObject.InstanceSize
 0001:000026CC       System.TObject.Create
 0001:000026EC       System.TObject.Destroy
 0001:000026FC       System.TObject.Free
 0001:00002708       System.TObject.InitInstance
 0001:00002760       System.TObject.CleanupInstance
 0001:00002780       System.InvokeImplGetter
 0001:000027B0       System.TObject.GetInterface
 0001:00002844       System.TObject.GetInterfaceEntry
 0001:00002888       System.@IsClass
 0001:000028AC       System.GetDynaMethod
 0001:000028DC       System.@CallDynaInst
 0001:000028F4       System.TObject.InheritsFrom
 0001:00002908       System.TObject.SafeCallException
 0001:00002910       System.TObject.DefaultHandler
 0001:00002914       System.TObject.AfterConstruction
 0001:00002918       System.TObject.BeforeDestruction
 0001:0000291C       System.TObject.Dispatch
 0001:00002944       System.@ClassCreate
 0001:00002994       System.@ClassDestroy
 0001:0000299C       System.@AfterConstruction
 0001:000029EC       System.@BeforeDestruction
 0001:000029FC       System.NotifyReRaise
 0001:00002A18       System.NotifyNonDelphiException
 0001:00002A3C       System.NotifyExcept
 0001:00002A54       System.NotifyAnyExcept
 0001:00002A68       System.CheckJmp
 0001:00002A88       System.NotifyExceptFinally
 0001:00002AB0       System.NotifyTerminate
 0001:00002ACC       System.NotifyUnhandled
 0001:00002AEC       System.@HandleAnyException
 0001:00002C18       System.@HandleFinally
 0001:00002CC0       System.@HandleFinallyInternal
 0001:00002CF8       System.@RaiseExcept
 0001:00002D20       System.@RaiseAgain
 0001:00002D74       System.@DoneExcept
 0001:00002DA4       System.@TryFinallyExit
 0001:00002DBC       System.MapToRunError
 0001:00002E5C       System.@ExceptionHandler
 0001:00002EFC       System.SetExceptionHandler
 0001:00002F1C       System.UnsetExceptionHandler
 0001:00002F44       System.FinalizeUnits
 0001:00002FA8       System.InitUnits
 0001:00003010       System.@StartLib
 0001:000030D8       System.@InitResStringImports
 0001:00003100       System.@InitImports
 0001:00003124       System.MakeErrorMessage
 0001:00003188       System.ExitDll
 0001:000031B8       System.WriteErrorMessage
 0001:00003244       System.@Halt0
 0001:00003320       System.@Halt
 0001:0000332C       System.@RunError
 0001:00003338       System.@LStrClr
 0001:0000335C       System.@LStrArrayClr
 0001:0000338C       System.@LStrAsg
 0001:000033D0       System.@LStrLAsg
 0001:000033FC       System.@NewAnsiString
 0001:00003428       System.@LStrFromPCharLen
 0001:00003458       System.CharFromWChar
 0001:00003478       System.WCharFromChar
 0001:00003494       System.@LStrFromPWCharLen
 0001:00003520       System.@LStrFromChar
 0001:00003530       System.@LStrFromPChar
 0001:00003560       System.@LStrFromPWChar
 0001:0000359C       System.@LStrFromString
 0001:000035A8       System.@LStrFromArray
 0001:000035C0       System.@LStrFromWStr
 0001:000035D4       System.@LStrLen
 0001:000035E0       System.@LStrCat
 0001:0000362C       System.@LStrCat3
 0001:000036A8       System.@LStrCatN
 0001:0000373C       System.@LStrAddRef
 0001:0000374C       System.@LStrToPChar
 0001:00003760       System.InternalUniqueString
 0001:000037A4       System.UniqueString
 0001:000037AC       System.@LStrCopy
 0001:000037EC       System.@LStrDelete
 0001:00003834       System.Pos
 0001:00003978       System.@LStrSetLength
 0001:000039DC       System.WStrError
 0001:000039E4       System.@NewWideString
 0001:000039FC       System.WStrSet
 0001:00003A0C       System.@WStrClr
 0001:00003A24       System.@WStrArrayClr
 0001:00003A48       System.@WStrAsg
 0001:00003A70       System.@WStrFromPCharLen
 0001:00003AFC       System.@WStrFromPWCharLen
 0001:00003B20       System.@WStrFromPWChar
 0001:00003B5C       System.@WStrFromLStr
 0001:00003B6C       System.@WStrToPWChar
 0001:00003B7C       System.@WStrLen
 0001:00003B88       System.@WStrCmp
 0001:00003C0C       System.@WStrCopy
 0001:00003C58       System.@WStrSetLength
 0001:00003C9C       System.@FinalizeRecord
 0001:00003CD0       System.@VarClr
 0001:00003CE8       System.@FinalizeArray
 0001:00003DD4       System.@Finalize
 0001:00003DE0       System.@VarCopy
 0001:00003DF8       System.@CopyRecord
 0001:00003F14       System.@CopyArray
 0001:0000400C       System.@Dispose
 0001:0000401C       System.@DispCallByIDError
 0001:00004024       System.@_llmul
 0001:00004048       System.@DynArrayLength
 0001:00004050       System.@DynArrayHigh
 0001:00004058       System.CopyArray
 0001:00004068       System.FinalizeArray
 0001:00004070       System.DynArrayClear
 0001:00004078       System.DynArraySetLength
 0001:00004204       System.@DynArraySetLength
 0001:00004210       System.@DynArrayClear
 0001:0000424C       System.@DynArrayAsg
 0001:00004274       System.FindHInstance
 0001:0000429C       System.DelayLoadResourceModule
 0001:000042E4       System.FindResourceHInstance
 0001:0000431C       System.FindBS
 0001:0000433C       System.ToLongPath
 0001:00004500       System.LoadResourceModule
 0001:00004770       System.AddModuleUnloadProc
 0001:00004778       System.RemoveModuleUnloadProc
 0001:00004780       System.AddModuleUnloadProc
 0001:000047A0       System.RemoveModuleUnloadProc
 0001:00004804       System.NotifyModuleUnload
 0001:00004860       System.RegisterModule
 0001:00004870       System.UnregisterModule
 0001:000048E0       System.@IntfClear
 0001:000048F8       System.@IntfCopy
 0001:00004924       System.TInterfacedObject.AfterConstruction
 0001:00004930       System.TInterfacedObject.BeforeDestruction
 0001:00004940       System.TInterfacedObject.NewInstance
 0001:00004950       System.TInterfacedObject.QueryInterface
 0001:00004978       System.TInterfacedObject._AddRef
 0001:0000498C       System.TInterfacedObject._Release
 0001:000049B4       System.UnicodeToUtf8
 0001:00004A90       System.UTF8Encode
 0001:00004B4C       System.LoadResString
 0001:00004BA4       System.GetACP
 0001:00004BAC       System.Finalization
 0001:00004C0C       SysInit.LocalAlloc
 0001:00004C14       SysInit.LocalFree
 0001:00004C1C       SysInit.TlsAlloc
 0001:00004C24       SysInit.TlsFree
 0001:00004C2C       SysInit.TlsGetValue
 0001:00004C34       SysInit.TlsSetValue
 0001:00004C3C       SysInit.AllocTlsBuffer
 0001:00004C48       SysInit.GetTlsSize
 0001:00004C50       SysInit.InitThreadTLS
 0001:00004C94       SysInit.InitProcessTLS
 0001:00004CC0       SysInit.ExitThreadTLS
 0001:00004CF8       SysInit.ExitProcessTLS
 0001:00004D1C       SysInit.@GetTls
 0001:00004D5C       SysInit.InitializeModule
 0001:00004D68       SysInit.@InitLib
 0001:00004DB0       Windows.RegCloseKey
 0001:00004DB8       Windows.RegCreateKeyEx
 0001:00004DC0       Windows.RegFlushKey
 0001:00004DC8       Windows.RegOpenKeyEx
 0001:00004DD0       Windows.RegQueryValueEx
 0001:00004DD8       Windows.RegSetValueEx
 0001:00004DE0       Windows.CloseHandle
 0001:00004DE8       Windows.CompareString
 0001:00004DF0       Windows.CreateEvent
 0001:00004DF8       Windows.DeleteCriticalSection
 0001:00004E00       Windows.EnterCriticalSection
 0001:00004E08       Windows.EnumCalendarInfoA
 0001:00004E10       Windows.FormatMessage
 0001:00004E18       Windows.FreeLibrary
 0001:00004E20       Windows.GetCPInfo
 0001:00004E28       Windows.GetCurrentThreadId
 0001:00004E30       Windows.GetDateFormat
 0001:00004E38       Windows.GetDiskFreeSpaceA
 0001:00004E40       Windows.GetLastError
 0001:00004E48       Windows.GetLocalTime
 0001:00004E50       Windows.GetLocaleInfo
 0001:00004E58       Windows.GetModuleFileName
 0001:00004E60       Windows.GetModuleHandle
 0001:00004E68       Windows.GetProcAddress
 0001:00004E70       Windows.GetStdHandle
 0001:00004E78       Windows.GetThreadLocale
 0001:00004E80       Windows.GetVersionEx
 0001:00004E88       Windows.InitializeCriticalSection
 0001:00004E90       Windows.LeaveCriticalSection
 0001:00004E98       Windows.ResetEvent
 0001:00004EA0       Windows.SetEvent
 0001:00004EA8       Windows.VirtualQuery
 0001:00004EB0       Windows.WaitForSingleObject
 0001:00004EB8       Windows.WriteFile
 0001:00004EC0       Windows.CharNext
 0001:00004EC8       Windows.CharToOemA
 0001:00004ED0       Windows.CharUpperBuff
 0001:00004ED8       Windows.GetSystemMetrics
 0001:00004EE0       Windows.LoadString
 0001:00004EE8       Windows.MessageBox
 0001:00004EF0       Windows.Finalization
 0001:0000521C       SysUtils..Exception
 0001:00005284       SysUtils..EHeapException
 0001:000052E0       SysUtils..EOutOfMemory
 0001:0000533C       SysUtils..EInOutError
 0001:00005394       SysUtils..EExternal
 0001:000053EC       SysUtils..EExternalException
 0001:0000544C       SysUtils..EIntError
 0001:000054A4       SysUtils..EDivByZero
 0001:000054FC       SysUtils..ERangeError
 0001:00005554       SysUtils..EIntOverflow
 0001:000055B0       SysUtils..EMathError
 0001:00005608       SysUtils..EInvalidOp
 0001:00005660       SysUtils..EZeroDivide
 0001:000056B8       SysUtils..EOverflow
 0001:00005710       SysUtils..EUnderflow
 0001:00005768       SysUtils..EInvalidPointer
 0001:000057C4       SysUtils..EInvalidCast
 0001:00005820       SysUtils..EConvertError
 0001:0000587C       SysUtils..EAccessViolation
 0001:000058DC       SysUtils..EPrivilege
 0001:00005934       SysUtils..EStackOverflow
 0001:00005990       SysUtils..EControlC
 0001:000059E8       SysUtils..EVariantError
 0001:00005A44       SysUtils..EAssertionFailed
 0001:00005AA4       SysUtils..EAbstractError
 0001:00005B00       SysUtils..EIntfCastError
 0001:00005B5C       SysUtils..EOSError
 0001:00005BB4       SysUtils..ESafecallException
 0001:00005C68       SysUtils..TThreadLocalCounter
 0001:00005D44       SysUtils..TMultiReadExclusiveWriteSynchronizer
 0001:00005DB8       SysUtils.DivMod
 0001:00005DD4       SysUtils.ConvertError
 0001:00005DEC       SysUtils.ConvertErrorFmt
 0001:00005E10       SysUtils.CoCreateGuid
 0001:00005E18       SysUtils.CreateGUID
 0001:00005E28       SysUtils.StringFromCLSID
 0001:00005E30       SysUtils.CoTaskMemFree
 0001:00005E38       SysUtils.GUIDToString
 0001:00005E74       SysUtils.UpperCase
 0001:00005EFC       SysUtils.LowerCase
 0001:00005F84       SysUtils.CompareText
 0001:00006020       SysUtils.SameText
 0001:00006044       SysUtils.AnsiUpperCase
 0001:0000607C       SysUtils.AnsiCompareText
 0001:000060C0       SysUtils.Trim
 0001:00006114       SysUtils.CvtInt
 0001:00006160       SysUtils.IntToStr
 0001:00006180       SysUtils.CvtInt64
 0001:0000624C       SysUtils.IntToStr
 0001:00006274       SysUtils.IntToHex
 0001:0000629C       SysUtils.StrToIntDef
 0001:000062B4       SysUtils.TryStrToInt
 0001:000062D4       SysUtils.VerifyBoolStrArray
 0001:00006364       SysUtils.CompareWith
 0001:000063E8       SysUtils.TryStrToBool
 0001:00006484       SysUtils.BoolToStr
 0001:000064D0       SysUtils.LastDelimiter
 0001:00006524       SysUtils.ExtractFileName
 0001:0000655C       SysUtils.BackfillGetDiskFreeSpaceEx
 0001:000065D0       SysUtils.StrLen
 0001:00006600       SysUtils.StrMove
 0001:00006610       SysUtils.StrLCopy
 0001:00006644       SysUtils.StrLIComp
 0001:00006688       SysUtils.StrScan
 0001:0000669C       SysUtils.StrPos
 0001:000066F0       SysUtils.StrPas
 0001:00006704       SysUtils.StrAlloc
 0001:00006718       SysUtils.StrDispose
 0001:00006728       SysUtils.FormatError
 0001:00006780       SysUtils.FormatVarToStr
 0001:000067A4       SysUtils.FormatClearStr
 0001:000067B0       SysUtils.FormatBuf
 0001:00006B28       SysUtils.StrLFmt
 0001:00006B68       SysUtils.Format
 0001:00006B7C       SysUtils.FmtStr
 0001:00006C58       SysUtils.PutExponent
 0001:00006C9C       SysUtils.FloatToText
 0001:00006F70       SysUtils.FloatToDecimal
 0001:0000719C       SysUtils.TextToFloat
 0001:000072B0       SysUtils.FloatToStr
 0001:000072E0       SysUtils.CurrToStr
 0001:00007310       SysUtils.TryStrToFloat
 0001:0000732C       SysUtils.TryStrToFloat
 0001:00007358       SysUtils.TryStrToFloat
 0001:00007384       SysUtils.TryStrToCurr
 0001:000073A0       SysUtils.DateTimeToTimeStamp
 0001:000073E4       SysUtils.TryEncodeTime
 0001:00007454       SysUtils.EncodeTime
 0001:00007494       SysUtils.DecodeTime
 0001:000074F0       SysUtils.IsLeapYear
 0001:0000752C       SysUtils.TryEncodeDate
 0001:000075F8       SysUtils.EncodeDate
 0001:00007628       SysUtils.DecodeDateFully
 0001:00007774       SysUtils.DecodeDate
 0001:00007794       SysUtils.DayOfWeek
 0001:000077BC       SysUtils.Now
 0001:0000780C       SysUtils.CurrentYear
 0001:00007820       SysUtils.AppendChars
 0001:00007864       SysUtils.AppendString
 0001:00007880       SysUtils.AppendNumber
 0001:000078CC       SysUtils.GetCount
 0001:000078F8       SysUtils.GetDate
 0001:00007930       SysUtils.GetTime
 0001:00007970       SysUtils.ConvertEraString
 0001:00007AEC       SysUtils.ConvertYearString
 0001:00007C04       SysUtils.AppendFormat
 0001:000083BC       SysUtils.DateTimeToString
 0001:00008418       SysUtils.ScanBlanks
 0001:0000843C       SysUtils.ScanNumber
 0001:000084D0       SysUtils.ScanString
 0001:000085A8       SysUtils.ScanChar
 0001:000085E4       SysUtils.GetDateOrder
 0001:00008630       SysUtils.ScanToNumber
 0001:00008678       SysUtils.GetEraYearOffset
 0001:000086CC       SysUtils.EraToYear
 0001:00008728       SysUtils.ScanDate
 0001:00008A74       SysUtils.ScanTime
 0001:00008C6C       SysUtils.TryStrToTime
 0001:00008CA4       SysUtils.TryStrToDateTime
 0001:00008D40       SysUtils.SysErrorMessage
 0001:00008D8C       SysUtils.GetLocaleStr
 0001:00008DD8       SysUtils.GetLocaleChar
 0001:00008E04       SysUtils.LocalGetLocaleStr
 0001:00008E40       SysUtils.GetMonthDayNames
 0001:00008F64       SysUtils.EnumEraNames
 0001:00008FA0       SysUtils.EnumEraYearOffsets
 0001:00009018       SysUtils.GetEraNamesAndYearOffsets
 0001:000090C8       SysUtils.TranslateDateFormat
 0001:000092F8       SysUtils.ConvertAddr
 0001:00009304       SysUtils.ExceptionErrorMessage
 0001:0000948C       SysUtils.ShowException
 0001:00009554       SysUtils.Exception.Create
 0001:00009590       SysUtils.Exception.CreateFmt
 0001:00009610       SysUtils.Exception.CreateRes
 0001:0000964C       SysUtils.Exception.CreateResFmt
 0001:000096E0       SysUtils.EHeapException.FreeInstance
 0001:0000970C       SysUtils.CreateInOutError
 0001:0000978C       SysUtils.ErrorHandler
 0001:000097DC       SysUtils.CreateAssertException
 0001:00009888       SysUtils.RaiseAssertException
 0001:00009898       SysUtils.AssertErrorHandler
 0001:000098B4       SysUtils.AbstractErrorHandler
 0001:000098CC       SysUtils.MapException
 0001:0000994C       SysUtils.GetExceptionClass
 0001:00009964       SysUtils.CreateAVObject
 0001:00009B30       SysUtils.GetExceptionObject
 0001:00009BF8       SysUtils.ExceptHandler
 0001:00009C08       SysUtils.InitExceptions
 0001:00009C8C       SysUtils.DoneExceptions
 0001:00009D24       SysUtils.InitPlatformId
 0001:00009D94       SysUtils.ByteTypeTest
 0001:00009E08       SysUtils.ByteType
 0001:00009E2C       SysUtils.StrByteType
 0001:00009E44       SysUtils.ByteToCharLen
 0001:00009E68       SysUtils.ByteToCharIndex
 0001:00009ED0       SysUtils.CountChars
 0001:00009F60       SysUtils.CharToByteIndex
 0001:00009FE4       SysUtils.CharToByteLen
 0001:0000A054       SysUtils.StrCharLength
 0001:0000A074       SysUtils.StrNextChar
 0001:0000A07C       SysUtils.CharLength
 0001:0000A0B4       SysUtils.NextCharIndex
 0001:0000A0EC       SysUtils.AnsiPos
 0001:0000A124       SysUtils.AnsiStrPos
 0001:0000A1C4       SysUtils.AnsiStrRScan
 0001:0000A1F8       SysUtils.AnsiStrScan
 0001:0000A238       SysUtils.InitLeadBytes
 0001:0000A294       SysUtils.InitSysLocale
 0001:0000A358       SysUtils.GetFormatSettings
 0001:0000A6D0       SysUtils.StringReplace
 0001:0000A880       SysUtils.HashName
 0001:0000A8A8       SysUtils.ModuleUnloaded
 0001:0000A9C0       SysUtils.Sleep
 0001:0000A9C8       SysUtils.RaiseLastOSError
 0001:0000A9D4       SysUtils.RaiseLastOSError
 0001:0000AA6C       SysUtils.FreeTerminateProcs
 0001:0000AA90       SysUtils.InitDriveSpacePtr
 0001:0000AAEC       SysUtils.InterlockedIncrement
 0001:0000AAF8       SysUtils.InterlockedDecrement
 0001:0000AB04       SysUtils.InterlockedExchange
 0001:0000AB0C       SysUtils.InterlockedExchangeAdd
 0001:0000AB14       SysUtils.TThreadLocalCounter.Destroy
 0001:0000AB6C       SysUtils.TThreadLocalCounter.HashIndex
 0001:0000AB88       SysUtils.TThreadLocalCounter.Open
 0001:0000AC00       SysUtils.TThreadLocalCounter.Delete
 0001:0000AC10       SysUtils.TThreadLocalCounter.Recycle
 0001:0000AC54       SysUtils.TMultiReadExclusiveWriteSynchronizer.Create
 0001:0000ACC8       SysUtils.TMultiReadExclusiveWriteSynchronizer.Destroy
 0001:0000AD10       SysUtils.TMultiReadExclusiveWriteSynchronizer.BlockReaders
 0001:0000AD1C       SysUtils.TMultiReadExclusiveWriteSynchronizer.UnblockReaders
 0001:0000AD28       SysUtils.TMultiReadExclusiveWriteSynchronizer.UnblockOneWriter
 0001:0000AD34       SysUtils.TMultiReadExclusiveWriteSynchronizer.WaitForReadSignal
 0001:0000AD44       SysUtils.TMultiReadExclusiveWriteSynchronizer.WaitForWriteSignal
 0001:0000AD54       SysUtils.TMultiReadExclusiveWriteSynchronizer.BeginWrite
 0001:0000AE00       SysUtils.TMultiReadExclusiveWriteSynchronizer.EndWrite
 0001:0000AE50       SysUtils.TMultiReadExclusiveWriteSynchronizer.BeginRead
 0001:0000AEC0       SysUtils.TMultiReadExclusiveWriteSynchronizer.EndRead
 0001:0000AF28       SysUtils.FreeAndNil
 0001:0000AF38       SysUtils.ClearHashTables
 0001:0000B238       SysUtils.Finalization
 0001:0000B3C8       VarUtils.VariantInit
 0001:0000B3D0       VarUtils.VariantClear
 0001:0000B3D8       VarUtils.VariantCopy
 0001:0000B3E0       VarUtils.VariantChangeType
 0001:0000B3E8       VarUtils.BackupVariantChangeTypeEx
 0001:0000B418       VarUtils.UniUnimplemented
 0001:0000B424       VarUtils.BiUnimplemented
 0001:0000B430       VarUtils.CmpUnimplemented
 0001:0000B43C       VarUtils.BackupVarI4FromStr
 0001:0000B4A8       VarUtils.BackupVarR4FromStr
 0001:0000B514       VarUtils.BackupVarR8FromStr
 0001:0000B580       VarUtils.BackupVarDateFromStr
 0001:0000B5EC       VarUtils.BackupVarCyFromStr
 0001:0000B658       VarUtils.BackupVarBoolFromStr
 0001:0000B6D8       VarUtils.BackupVarBStrFromCy
 0001:0000B748       VarUtils.BackupVarBStrFromDate
 0001:0000B7BC       VarUtils.BackupVarBStrFromBool
 0001:0000B830       VarUtils.SafeArrayCreate
 0001:0000B838       VarUtils.SafeArrayGetLBound
 0001:0000B840       VarUtils.SafeArrayGetUBound
 0001:0000B848       VarUtils.SafeArrayPtrOfIndex
 0001:0000B850       VarUtils.FindProc
 0001:0000B87C       VarUtils.InitializeVarUtils
 0001:0000BB88       VarUtils.Finalization
 0001:0000BC08       Variants..TCustomVariantType
 0001:0000BCD4       Variants..EVariantInvalidOpError
 0001:0000BD38       Variants..EVariantTypeCastError
 0001:0000BD9C       Variants..EVariantOverflowError
 0001:0000BE00       Variants..EVariantInvalidArgError
 0001:0000BE64       Variants..EVariantBadVarTypeError
 0001:0000BEC8       Variants..EVariantBadIndexError
 0001:0000BF2C       Variants..EVariantArrayLockedError
 0001:0000BF94       Variants..EVariantArrayCreateError
 0001:0000BFFC       Variants..EVariantNotImplError
 0001:0000C060       Variants..EVariantOutOfMemoryError
 0001:0000C0C8       Variants..EVariantUnexpectedError
 0001:0000C12C       Variants..EVariantDispatchError
 0001:0000C190       Variants.VarCastError
 0001:0000C1E4       Variants.VarCastError
 0001:0000C280       Variants.VarInvalidOp
 0001:0000C2D4       Variants.VarOverflowError
 0001:0000C370       Variants.VarArrayCreateError
 0001:0000C3C4       Variants.TranslateResult
 0001:0000C618       Variants.VarResultCheck
 0001:0000C624       Variants.VarResultCheck
 0001:0000C658       Variants.@DispInvokeError
 0001:0000C6AC       Variants.InBounds
 0001:0000C6DC       Variants.Increment
 0001:0000C738       Variants.VarArrayClear
 0001:0000C8B4       Variants.VarClearDeep
 0001:0000C930       Variants.@VarClear
 0001:0000C944       Variants.@VarClr
 0001:0000C94C       Variants.InBounds
 0001:0000C97C       Variants.Increment
 0001:0000C9D8       Variants.VarArrayCopyForEach
 0001:0000CBA4       Variants.VarCopyCopyProc
 0001:0000CBAC       Variants.VarCopyDeep
 0001:0000CC58       Variants.@VarCopy
 0001:0000CC9C       Variants.CurrToWStrViaOS
 0001:0000CCD4       Variants.DateToWStrViaOS
 0001:0000CD0C       Variants.BoolToWStrViaOS
 0001:0000CDD4       Variants.VarToLStrViaOS
 0001:0000CEA0       Variants.VarToLStrAny
 0001:0000CF04       Variants.VarToLStrCustom
 0001:0000CF8C       Variants.@VarToLStr
 0001:0000D4C8       Variants.VarToWStrViaOS
 0001:0000D580       Variants.VarToWStrAny
 0001:0000D5E4       Variants.VarToWStrCustom
 0001:0000D6AC       Variants.@VarToWStr
 0001:0000DC00       Variants.@VarAddRef
 0001:0000DD84       Variants.VarTypeAsText
 0001:0000DEF4       Variants.SetVarAsError
 0001:0000DF0C       Variants.SetClearVarToEmptyParam
 0001:0000DF3C       Variants.ClearVariantTypeList
 0001:0000DFA8       Variants.TCustomVariantType.BinaryOp
 0001:0000DFB4       Variants.TCustomVariantType.Cast
 0001:0000DFEC       Variants.TCustomVariantType.CastTo
 0001:0000E034       Variants.TCustomVariantType.Compare
 0001:0000E040       Variants.TCustomVariantType.CompareOp
 0001:0000E078       Variants.TCustomVariantType.CastToOle
 0001:0000E0B4       Variants.TCustomVariantType.Destroy
 0001:0000E140       Variants.TCustomVariantType.IsClear
 0001:0000E144       Variants.TCustomVariantType.LeftPromotion
 0001:0000E158       Variants.TCustomVariantType.OlePromotion
 0001:0000E160       Variants.TCustomVariantType.RaiseCastError
 0001:0000E168       Variants.TCustomVariantType.RaiseInvalidOp
 0001:0000E170       Variants.TCustomVariantType.RaiseDispError
 0001:0000E178       Variants.TCustomVariantType.RightPromotion
 0001:0000E18C       Variants.TCustomVariantType.UnaryOp
 0001:0000E194       Variants.TCustomVariantType.DispInvoke
 0001:0000E1A0       Variants.TCustomVariantType._AddRef
 0001:0000E1AC       Variants.TCustomVariantType._Release
 0001:0000E1B8       Variants.TCustomVariantType.QueryInterface
 0001:0000E1E0       Variants.FindCustomVariantType
 0001:0000E29C       Variants.Finalization
 0001:0000E378       TypInfo.Finalization
 0001:0000E3C8       Classes..EListError
 0001:0000E420       Classes..TList
 0001:0000E484       Classes..TThreadList
 0001:0000E4DC       Classes..TPersistent
 0001:0000E578       Classes..TRegGroup
 0001:0000E5D0       Classes..TRegGroups
 0001:0000E628       Classes.TRegGroup.Create
 0001:0000E684       Classes.TRegGroup.Destroy
 0001:0000E6C4       Classes.PointerInModule
 0001:0000E6E4       Classes.TRegGroup.UnregisterModuleClasses
 0001:0000E790       Classes.TRegGroups.Create
 0001:0000E804       Classes.TRegGroups.Destroy
 0001:0000E864       Classes.TRegGroups.Lock
 0001:0000E870       Classes.TRegGroups.Unlock
 0001:0000E87C       Classes.TRegGroups.UnregisterModuleClasses
 0001:0000E8CC       Classes.UnRegisterModuleClasses
 0001:0000E918       Classes.TList.Destroy
 0001:0000E938       Classes.TList.Add
 0001:0000E96C       Classes.TList.Clear
 0001:0000E984       Classes.TList.Delete
 0001:0000E9E0       Classes.ReturnAddr
 0001:0000E9E4       Classes.TList.Error
 0001:0000EA1C       Classes.TList.Error
 0001:0000EA70       Classes.TList.Get
 0001:0000EA98       Classes.TList.Grow
 0001:0000EACC       Classes.TList.SetCapacity
 0001:0000EB08       Classes.TList.SetCount
 0001:0000EB7C       Classes.TList.Notify
 0001:0000EB80       Classes.TThreadList.Create
 0001:0000EBD4       Classes.TThreadList.Destroy
 0001:0000EC50       Classes.TThreadList.LockList
 0001:0000EC64       Classes.TThreadList.UnlockList
 0001:0000EC70       Classes.TPersistent.Destroy
 0001:0000EC9C       Classes.TPersistent.Assign
 0001:0000ECB0       Classes.TPersistent.AssignError
 0001:0000ED80       Classes.TPersistent.AssignTo
 0001:0000ED88       Classes.TPersistent.DefineProperties
 0001:0000ED8C       Classes.TPersistent.GetNamePath
 0001:0000EE3C       Classes.TPersistent.GetOwner
 0001:0000EE40       Classes.RemoveFixupReferences
 0001:0000EEEC       Classes.RemoveFixups
 0001:0000EF70       Classes.InitThreadSynchronization
 0001:0000EFA4       Classes.DoneThreadSynchronization
 0001:0000EFBC       Classes.FreeIntConstList
 0001:0000F028       Classes.ModuleUnload
 0001:0000F030       Classes.Finalization
 0001:0000F0F8       IniFiles.Finalization
 0001:0000F140       Registry..ERegistryException
 0001:0000F1A0       Registry..TRegistry
 0001:0000F208       Registry.ReadError
 0001:0000F234       Registry.IsRelative
 0001:0000F248       Registry.RegDataToDataType
 0001:0000F278       Registry.DataTypeToRegData
 0001:0000F2A0       Registry.TRegistry.Create
 0001:0000F2E4       Registry.TRegistry.Create
 0001:0000F320       Registry.TRegistry.Destroy
 0001:0000F34C       Registry.TRegistry.CloseKey
 0001:0000F37C       Registry.TRegistry.SetRootKey
 0001:0000F3A8       Registry.TRegistry.ChangeKey
 0001:0000F3CC       Registry.TRegistry.GetBaseKey
 0001:0000F3E0       Registry.TRegistry.OpenKey
 0001:0000F504       Registry.TRegistry.GetDataInfo
 0001:0000F554       Registry.TRegistry.GetDataSize
 0001:0000F57C       Registry.TRegistry.WriteString
 0001:0000F5AC       Registry.TRegistry.ReadString
 0001:0000F624       Registry.TRegistry.PutData
 0001:0000F68C       Registry.TRegistry.GetData
 0001:0000F700       Registry.TRegistry.ValueExists
 0001:0000F728       Registry.Finalization
 0001:0000F770       WinInet.HttpOpenRequest
 0001:0000F778       WinInet.HttpSendRequestA
 0001:0000F780       WinInet.InternetCloseHandle
 0001:0000F788       WinInet.InternetConnect
 0001:0000F790       WinInet.InternetOpenW
 0001:0000F798       WinInet.InternetQueryOption
 0001:0000F7A0       WinInet.InternetReadFile
 0001:0000F7A8       WinInet.InternetSetOption
 0001:0000F7B0       DateUtils.DateTimeToUnix
 0001:0000F7F4       dskMetricsVars.Finalization
 0001:0000F84C       dskMetricsInternals._GenerateGUID
 0001:0000F9C0       dskMetricsInternals._UserIDExists
 0001:0000FAE4       dskMetricsInternals._GenerateUserID
 0001:0000FB28       dskMetricsInternals._SaveUserIDReg
 0001:0000FC04       dskMetricsInternals._LoadUserIDReg
 0001:0000FCF4       dskMetricsInternals._GetUserID
 0001:0000FDA8       dskMetricsInternals._GetTimeStamp
 0001:0000FE14       dskMetricsInternals._SendPost
 0001:00010260       dskMetricsInternals._TrackInstallation
 0001:00010394       dskMetricsInternals._TrackUninstallation
 0001:000104C8       JwaMsi.MsiCloseHandle
 0001:000104D0       JwaMsiQuery.MsiCreateRecord
 0001:000104D8       JwaMsiQuery.MsiRecordSetString
 0001:000104E0       JwaMsiQuery.MsiGetPropertyA
 0001:000104E8       JwaMsiQuery.MsiProcessMessage
 0001:000104F0       dskMetricsMSI._MSILogString
 0001:000105D4       dskMetricsMSI._MSITrackInstallation
 0001:00010924       dskMetricsMSI._MSITrackUninstallation
 0001:00010C74       DeskMetricsInstaller.DeskMetricsTrackInstallation
 0001:00010D0C       DeskMetricsInstaller.DeskMetricsTrackUninstallation
 0001:00010DA4       DeskMetricsInstaller.DeskMetricsMSITrackInstallation
 0001:00010DE4       DeskMetricsInstaller.DeskMetricsMSITrackUninstallation
 0001:00010E24       DeskMetricsInstaller.Finalization
 0002:00000000       System.System
 0002:00000098       Windows.Windows
 0002:000000AC       SysUtils.SysUtils
 0002:00000134       VarUtils.VarUtils
 0002:00000144       Variants.Variants
 0002:000001F0       TypInfo.TypInfo
 0002:000001F8       Classes.Classes
 0002:0000028C       IniFiles.IniFiles
 0002:00000294       Registry.Registry
 0002:0000029C       dskMetricsVars.dskMetricsVars
 0002:000002A4       DeskMetricsInstaller.DeskMetricsInstaller
 0003:00000000       System.ExitCode
 0003:00000004       System.ErrorAddr
 0003:00000008       System.FileMode
 0003:0000000C       System.VarClearProc
 0003:00000010       System.VarAddRefProc
 0003:00000014       System.VarCopyProc
 0003:00000018       System.VarToLStrProc
 0003:0000001C       System.VarToWStrProc
 0003:00000020       System.Default8087CW
 0003:00000024       System.DebugHook
 0003:00000028       System.JITEnable
 0003:0000002C       System.NoErrMsg
 0003:00000030       System.LibModuleList
 0003:00000034       System.ModuleUnloadList
 0003:00000038       System.Copyright
 0003:0000003C       System.SmallBlockTypes
 0003:0000071C       System.MemoryManager
 0003:00000734       System.reMap
 0003:00000750       System.errCaption
 0003:00000758       System.runErrMsg
 0003:00000778       System.dig
 0003:00000788       SysInit.TlsIndex
 0003:0000078C       SysInit.Module
 0003:000007A4       SysInit.TlsProc
 0003:000007B4       SysUtils.EmptyStr
 0003:000007B8       SysUtils.EmptyWideStr
 0003:000007BC       SysUtils.Win32Platform
 0003:000007C0       SysUtils.Win32MajorVersion
 0003:000007C4       SysUtils.Win32MinorVersion
 0003:000007C8       SysUtils.Win32BuildNumber
 0003:000007CC       SysUtils.Win32CSDVersion
 0003:000007D0       SysUtils.TwoDigitYearCenturyWindow
 0003:000007D4       SysUtils.MonthDays
 0003:00000804       SysUtils.LeadBytes
 0003:00000824       SysUtils.HexDisplayPrefix
 0003:00000828       SysUtils.GetDiskFreeSpaceEx
 0003:0000082C       SysUtils.cSimpleBoolStrs
 0003:00000834       SysUtils.FormatErrorStrs
 0003:0000083C       SysUtils.FCon1E18
 0003:00000848       SysUtils.DCon10
 0003:0000084C       SysUtils.CWNear
 0003:00000850       SysUtils.FMSecsPerDay
 0003:00000854       SysUtils.IMSecsPerDay
 0003:00000858       SysUtils.Format
 0003:0000085C       SysUtils.DefShortMonthNames
 0003:0000088C       SysUtils.DefLongMonthNames
 0003:000008BC       SysUtils.DefShortDayNames
 0003:000008D8       SysUtils.DefLongDayNames
 0003:000008F4       SysUtils.ErrorMap
 0003:0000092C       SysUtils.ExceptMap
 0003:000009DC       SysUtils.TerminateProcList
 0003:000009E0       VarUtils.CResult
 0003:000009E8       Variants.NullStrictConvert
 0003:000009EC       Variants.NullAsStringValue
 0003:000009F0       Variants.BooleanToStringRule
 0003:000009F4       Variants.CInvalidCustomVariantType
 0003:000009F8       Variants.CText
 0003:00000A4C       Variants.CRelationshipToBoolean
 0003:00000A60       TypInfo.BooleanIdents
 0003:00000A68       TypInfo.DotSep
 0003:00000A6C       Classes.SyncList
 0003:00000A70       IniFiles.Values
 0003:00000A78       Registry.Values
 0003:00000A80       dskMetricsVars.FAppID
 0003:00000A84       dskMetricsVars.FAppVersion
 0004:00000000       System.DispCallByIDProc
 0004:00000004       System.ExceptProc
 0004:00000008       System.ErrorProc
 0004:0000000C       System.ExceptClsProc
 0004:00000010       System.ExceptObjProc
 0004:00000014       System.RaiseExceptionProc
 0004:00000018       System.RTLUnwindProc
 0004:0000001C       System.ExceptionClass
 0004:00000020       System.AssertErrorProc
 0004:00000024       System.ExitProcessProc
 0004:00000028       System.AbstractErrorProc
 0004:0000002C       System.MainInstance
 0004:00000030       System.MainThreadID
 0004:00000034       System.IsLibrary
 0004:00000038       System.CmdShow
 0004:0000003C       System.CmdLine
 0004:00000040       System.ExitProc
 0004:00000044       System.IsConsole
 0004:00000045       System.IsMultiThread
 0004:00000046       System.Test8086
 0004:00000048       System.Input
 0004:00000214       System.Output
 0004:000003E0       System.ErrOutput
 0004:000005AC       System.ReportMemoryLeaksOnShutdown
 0004:000005AD       System.NeverSleepOnMMThreadContention
 0004:000005B0       System..6
 0004:000005B4       System.DefaultSystemCodePage
 0004:000005B8       System.AllocSize2SmallBlockTypeIndX4
 0004:000006FE       System.MinimumBlockAlignment
 0004:00000700       System.MediumBlockPoolsCircularList
 0004:00000710       System.MediumBlocksLocked
 0004:00000714       System.LastSequentiallyFedMediumBlock
 0004:00000718       System.MediumSequentialFeedBytesLeft
 0004:0000071C       System.MediumBlockBinGroupBitmap
 0004:00000720       System.MediumBlockBinBitmaps
 0004:000007A0       System.MediumBlockBins
 0004:000027A0       System.LargeBlocksLocked
 0004:000027A4       System.LargeBlocksCircularList
 0004:000027B4       System.ExpectedMemoryLeaks
 0004:000027B8       System.ExpectedMemoryLeaksListLocked
 0004:000027BC       System.MMSharingWindow
 0004:000027C0       System.InitContext
 0004:000027EC       SysInit.ModuleIsLib
 0004:000027ED       SysInit.ModuleIsCpp
 0004:000027F0       SysInit.HInstance
 0004:000027F4       SysInit.DllProc
 0004:000027F8       SysInit.tlsBuffer
 0004:000027FC       Windows..3
 0004:00002800       Windows.HtmlHelpModule
 0004:00002804       SysUtils.CurrencyString
 0004:00002808       SysUtils.CurrencyFormat
 0004:00002809       SysUtils.NegCurrFormat
 0004:0000280A       SysUtils.ThousandSeparator
 0004:0000280B       SysUtils.DecimalSeparator
 0004:0000280C       SysUtils.CurrencyDecimals
 0004:0000280D       SysUtils.DateSeparator
 0004:00002810       SysUtils.ShortDateFormat
 0004:00002814       SysUtils.LongDateFormat
 0004:00002818       SysUtils.TimeSeparator
 0004:0000281C       SysUtils.TimeAMString
 0004:00002820       SysUtils.TimePMString
 0004:00002824       SysUtils.ShortTimeFormat
 0004:00002828       SysUtils.LongTimeFormat
 0004:0000282C       SysUtils.ShortMonthNames
 0004:0000285C       SysUtils.LongMonthNames
 0004:0000288C       SysUtils.ShortDayNames
 0004:000028A8       SysUtils.LongDayNames
 0004:000028C4       SysUtils.SysLocale
 0004:000028D2       SysUtils.ListSeparator
 0004:000028D4       SysUtils.EraNames
 0004:000028F0       SysUtils.EraYearOffsets
 0004:0000290C       SysUtils.TrueBoolStrs
 0004:00002910       SysUtils.FalseBoolStrs
 0004:00002914       SysUtils..35
 0004:00002918       SysUtils.OutOfMemory
 0004:0000291C       SysUtils.InvalidPointer
 0004:00002920       SysUtils.ValidatedUnitHashBuckets
 0004:00003914       SysUtils.UnitHashBuckets
 0004:00004908       SysUtils.FLanguages
 0004:0000490C       VarUtils.VariantChangeTypeEx
 0004:00004910       VarUtils.VarNeg
 0004:00004914       VarUtils.VarNot
 0004:00004918       VarUtils.VarAdd
 0004:0000491C       VarUtils.VarSub
 0004:00004920       VarUtils.VarMul
 0004:00004924       VarUtils.VarDiv
 0004:00004928       VarUtils.VarIDiv
 0004:0000492C       VarUtils.VarMod
 0004:00004930       VarUtils.VarAnd
 0004:00004934       VarUtils.VarOr
 0004:00004938       VarUtils.VarXor
 0004:0000493C       VarUtils.VarCmp
 0004:00004940       VarUtils.VarI4FromStr
 0004:00004944       VarUtils.VarR4FromStr
 0004:00004948       VarUtils.VarR8FromStr
 0004:0000494C       VarUtils.VarDateFromStr
 0004:00004950       VarUtils.VarCyFromStr
 0004:00004954       VarUtils.VarBoolFromStr
 0004:00004958       VarUtils.VarBstrFromCy
 0004:0000495C       VarUtils.VarBstrFromDate
 0004:00004960       VarUtils.VarBstrFromBool
 0004:00004964       VarUtils..5
 0004:00004968       Variants.EmptyParam
 0004:00004978       Variants.VarDispProc
 0004:0000497C       Variants.ClearAnyProc
 0004:00004980       Variants.ChangeAnyProc
 0004:00004984       Variants.RefAnyProc
 0004:00004988       Variants..81
 0004:0000498C       Variants.LVarTypes
 0004:00004990       Variants.LVarTypeSync
 0004:000049A8       TypInfo..6
 0004:000049AC       Classes.GlobalNameSpace
 0004:000049B0       Classes.SyncEvent
 0004:000049B4       Classes..95
 0004:000049B8       Classes.IntConstList
 0004:000049BC       Classes.RegGroups
 0004:000049C0       Classes.FindGlobalComponentProcs
 0004:000049C4       Classes.GlobalFixupList
 0004:000049C8       Classes.ThreadLock
 0004:000049E0       IniFiles..8
 0004:000049E4       Registry..5
 0004:000049E8       dskMetricsVars.FPostServer
 0004:000049EC       dskMetricsVars.FPostPort
 0004:000049F0       dskMetricsVars.FPostTimeOut
 0004:000049F4       dskMetricsVars.FPostAgent
 0004:000049F8       dskMetricsVars.FPostWaitResponse
 0004:000049FC       dskMetricsVars..1
 0005:00000000       System.RaiseListPtr
 0005:00000004       System.InOutRes
 0005:00000008       Classes.GlobalLists
 0005:0000000C       SysInit.TlsLast


Line numbers for dskMetricsConsts(dskMetricsConsts.pas) segment .text

    91 0001:00000000

Line numbers for dskMetricsVars(dskMetricsVars.pas) segment .itext

    33 0002:0000029C

Line numbers for dskMetricsInternals(dskMetricsInternals.pas) segment .text

    45 0001:0000F84C    46 0001:0000F874    47 0001:0000F882    48 0001:0000F88B
    50 0001:0000F896    51 0001:0000F8B1    52 0001:0000F8D9    53 0001:0000F901
    55 0001:0000F928    57 0001:0000F93A    62 0001:0000F9C0    63 0001:0000F9DC
    64 0001:0000F9E0    65 0001:0000F9EE    66 0001:0000FA02    67 0001:0000FA10
    68 0001:0000FA1D    70 0001:0000FA30    71 0001:0000FA41    74 0001:0000FA66
    77 0001:0000FA85    79 0001:0000FA8E    82 0001:0000FAE4    83 0001:0000FAEE
    84 0001:0000FAFC    86 0001:0000FB13    88 0001:0000FB20    93 0001:0000FB28
    94 0001:0000FB33    95 0001:0000FB37    96 0001:0000FB45    97 0001:0000FB59
    98 0001:0000FB67    99 0001:0000FB74   100 0001:0000FB87   102 0001:0000FBA3
   105 0001:0000FBC2   107 0001:0000FBCB   112 0001:0000FC04   113 0001:0000FC10
   114 0001:0000FC18   115 0001:0000FC26   116 0001:0000FC3A   117 0001:0000FC48
   118 0001:0000FC55   120 0001:0000FC68   121 0001:0000FC77   124 0001:0000FC94
   127 0001:0000FCB3   129 0001:0000FCC0   132 0001:0000FCF4   133 0001:0000FD11
   134 0001:0000FD1F   135 0001:0000FD27   137 0001:0000FD30   138 0001:0000FD43
   141 0001:0000FD4F   143 0001:0000FD71   145 0001:0000FD7E   148 0001:0000FDA8
   149 0001:0000FDB2   150 0001:0000FDC0   152 0001:0000FDEA   154 0001:0000FDFC
   166 0001:0000FE14   167 0001:0000FE5D   168 0001:0000FE64   169 0001:0000FE72
   172 0001:0000FE7C   173 0001:0000FE89   175 0001:0000FEC5   176 0001:0000FEDD
   178 0001:0000FEE3   179 0001:0000FEEA   182 0001:0000FEF7   184 0001:0000FF05
   186 0001:0000FF0F   187 0001:0000FF22   188 0001:0000FF35   192 0001:0000FF48
   193 0001:0000FF8E   195 0001:0000FF94   196 0001:0000FF9B   199 0001:0000FFAD
   200 0001:0000FFBB   201 0001:0000FFC8   203 0001:0000FFCF   205 0001:0000FFD4
   206 0001:0000FFF3   208 0001:00010006   209 0001:0001000D   211 0001:00010024
   212 0001:0001002B   213 0001:00010042   216 0001:0001004B   219 0001:00010052
   221 0001:00010058   222 0001:0001005F   225 0001:00010076   226 0001:00010084
   228 0001:000100BD   231 0001:000100C7   232 0001:000100CE   234 0001:000100D4
   236 0001:000100F1   237 0001:000100F8   240 0001:000100FA   242 0001:00010109
   243 0001:00010112   242 0001:00010119   232 0001:0001011C   249 0001:00010124
   251 0001:00010138   254 0001:00010156   257 0001:00010174   260 0001:00010194
   262 0001:000101A0   267 0001:00010260   268 0001:0001027A   269 0001:00010288
   271 0001:00010292   272 0001:000102E0   275 0001:000102EC   277 0001:00010300
   279 0001:00010308   284 0001:00010394   285 0001:000103AE   286 0001:000103BC
   288 0001:000103C6   289 0001:00010414   292 0001:00010420   294 0001:00010434
   296 0001:0001043C   299 0001:000104F6

Line numbers for JwaWinDLLNames(JwaWinDLLNames.pas) segment .text

   172 0001:00000000

Line numbers for JwaWinNT(JwaWinNT.pas) segment .text

  9740 0001:00000000

Line numbers for JwaWinType(JwaWinType.pas) segment .text

  1929 0001:00000000

Line numbers for JwaNtStatus(JwaNtStatus.pas) segment .text

 10606 0001:00000000

Line numbers for JwaWinBase(JwaWinBase.pas) segment .text

 20356 0001:00000000

Line numbers for JwaWinCrypt(JwaWinCrypt.pas) segment .text

 19880 0001:00000000

Line numbers for JwaMsi(JwaMSI.pas) segment .text

  3489 0001:000104C8  3664 0001:000104CE

Line numbers for JwaMsiQuery(JwaMsiQuery.pas) segment .text

  2884 0001:000104D0  2890 0001:000104D8  2905 0001:000104E0  2920 0001:000104E8
  2974 0001:000104EE

Line numbers for dskMetricsMSI(dskMetricsMSI.pas) segment .text

    37 0001:000104F0    38 0001:00010517    41 0001:00010527    42 0001:00010531
    43 0001:0001053F    44 0001:00010563    46 0001:0001057F    48 0001:00010590
    56 0001:000105D4    57 0001:000105F8    58 0001:00010606    59 0001:00010614
    60 0001:00010621    62 0001:00010628    63 0001:00010635    64 0001:0001063C
    66 0001:0001064A    67 0001:00010662    69 0001:0001068B    70 0001:000106A3
    73 0001:000106CC    74 0001:000106E4    76 0001:000106FC    77 0001:0001071C
    80 0001:0001073C    81 0001:0001074D    82 0001:0001075C    84 0001:0001076B
    87 0001:00010787    93 0001:000107A6    94 0001:000107AE    96 0001:000107BE
    98 0001:000107CF   100 0001:000107D9   108 0001:00010924   109 0001:00010948
   110 0001:00010956   111 0001:00010964   112 0001:00010971   114 0001:00010978
   115 0001:00010985   116 0001:0001098C   118 0001:0001099A   119 0001:000109B2
   121 0001:000109DB   122 0001:000109F3   125 0001:00010A1C   126 0001:00010A34
   128 0001:00010A4C   129 0001:00010A6C   132 0001:00010A8C   133 0001:00010A9D
   134 0001:00010AAC   136 0001:00010ABB   139 0001:00010AD7   144 0001:00010AF6
   145 0001:00010AFE   149 0001:00010B1B   151 0001:00010B28   154 0001:00010CA2

Line numbers for DeskMetricsInstaller(C:\Users\Bernardo\Documents\DeskMetrics\Componentes\InstallerMetrics\ANSI\DeskMetricsInstaller.dpr) segment .text

    29 0001:00010C74    30 0001:00010C98    31 0001:00010CA6    32 0001:00010CB3
    34 0001:00010CC0    36 0001:00010CD6    38 0001:00010CDE    41 0001:00010D0C
    42 0001:00010D30    43 0001:00010D3E    44 0001:00010D4B    46 0001:00010D58
    48 0001:00010D6E    50 0001:00010D76    53 0001:00010DA4    54 0001:00010DAA
    55 0001:00010DB8    57 0001:00010DD1    59 0001:00010DDB    62 0001:00010DE4
    63 0001:00010DEA    64 0001:00010DF8    66 0001:00010E11    68 0001:00010E1B

Line numbers for DeskMetricsInstaller(C:\Users\Bernardo\Documents\DeskMetrics\Componentes\InstallerMetrics\ANSI\DeskMetricsInstaller.dpr) segment .itext

    76 0002:000002A4    77 0002:000002B4    78 0002:000002C3    79 0002:000002CE
    80 0002:000002D9    81 0002:000002E8    82 0002:000002F0

Bound resource files

DeskMetricsInstaller.res
DeskMetricsInstaller.drf


Program entry point at 0002:000002A4
